
/home/hmka2/output/freertos1000.elf:     file format elf64-littleriscv


Disassembly of section .text:

00000000c0000000 <boot>:
    c0000000:	6f89                	lui	t6,0x2
    c0000002:	800f8f9b          	addiw	t6,t6,-2048
    c0000006:	300f9073          	csrw	mstatus,t6
    c000000a:	a009                	j	c000000c <_mstart>

00000000c000000c <_mstart>:
    c000000c:	4081                	li	ra,0
    c000000e:	4101                	li	sp,0
    c0000010:	4181                	li	gp,0
    c0000012:	4201                	li	tp,0
    c0000014:	4281                	li	t0,0
    c0000016:	4301                	li	t1,0
    c0000018:	4381                	li	t2,0
    c000001a:	4401                	li	s0,0
    c000001c:	4481                	li	s1,0
    c000001e:	4501                	li	a0,0
    c0000020:	4581                	li	a1,0
    c0000022:	4601                	li	a2,0
    c0000024:	4681                	li	a3,0
    c0000026:	4701                	li	a4,0
    c0000028:	4781                	li	a5,0
    c000002a:	4801                	li	a6,0
    c000002c:	4881                	li	a7,0
    c000002e:	4901                	li	s2,0
    c0000030:	4981                	li	s3,0
    c0000032:	4a01                	li	s4,0
    c0000034:	4a81                	li	s5,0
    c0000036:	4b01                	li	s6,0
    c0000038:	4b81                	li	s7,0
    c000003a:	4c01                	li	s8,0
    c000003c:	4c81                	li	s9,0
    c000003e:	4d01                	li	s10,0
    c0000040:	4d81                	li	s11,0
    c0000042:	4e01                	li	t3,0
    c0000044:	4e81                	li	t4,0
    c0000046:	4f01                	li	t5,0
    c0000048:	4f81                	li	t6,0

00000000c000004a <.Lpcrel_hi0>:
    c000004a:	00081197          	auipc	gp,0x81
    c000004e:	de618193          	addi	gp,gp,-538 # c0080e30 <_gp>

00000000c0000052 <init_bss>:
    c0000052:	00082517          	auipc	a0,0x82
    c0000056:	3fe50513          	addi	a0,a0,1022 # c0082450 <xQueueRegistry>

00000000c000005a <.Lpcrel_hi2>:
    c000005a:	000c2597          	auipc	a1,0xc2
    c000005e:	7a658593          	addi	a1,a1,1958 # c00c2800 <__bss_end>
    c0000062:	4601                	li	a2,0
    c0000064:	048000ef          	jal	ra,c00000ac <fill_block>

00000000c0000068 <init_sbss>:
    c0000068:	00080517          	auipc	a0,0x80
    c000006c:	49850513          	addi	a0,a0,1176 # c0080500 <__rodata_end>

00000000c0000070 <.Lpcrel_hi4>:
    c0000070:	00080597          	auipc	a1,0x80
    c0000074:	5c058593          	addi	a1,a1,1472 # c0080630 <__sbss_end>
    c0000078:	4601                	li	a2,0
    c000007a:	032000ef          	jal	ra,c00000ac <fill_block>

00000000c000007e <write_stack_pattern>:
    c000007e:	000c6517          	auipc	a0,0xc6
    c0000082:	78250513          	addi	a0,a0,1922 # c00c6800 <_heap_end>

00000000c0000086 <.Lpcrel_hi6>:
    c0000086:	000ca597          	auipc	a1,0xca
    c000008a:	77a58593          	addi	a1,a1,1914 # c00ca800 <__freertos_irq_stack_top>
    c000008e:	000ac637          	lui	a2,0xac
    c0000092:	abb6061b          	addiw	a2,a2,-1349
    c0000096:	0632                	slli	a2,a2,0xc
    c0000098:	bab60613          	addi	a2,a2,-1109 # abbab <.Lline_table_start0+0xa31a2>
    c000009c:	010000ef          	jal	ra,c00000ac <fill_block>

00000000c00000a0 <init_stack>:
    c00000a0:	000ca117          	auipc	sp,0xca
    c00000a4:	76010113          	addi	sp,sp,1888 # c00ca800 <__freertos_irq_stack_top>
    c00000a8:	5fd0906f          	j	c0009ea4 <main>

00000000c00000ac <fill_block>:
    c00000ac:	00b57563          	bgeu	a0,a1,c00000b6 <fb_end>
    c00000b0:	c110                	sw	a2,0(a0)
    c00000b2:	0511                	addi	a0,a0,4
    c00000b4:	bfe5                	j	c00000ac <fill_block>

00000000c00000b6 <fb_end>:
    c00000b6:	8082                	ret
	...

00000000c0000100 <freertos_risc_v_trap_handler>:
    c0000100:	7151                	addi	sp,sp,-240
    c0000102:	e406                	sd	ra,8(sp)
    c0000104:	e816                	sd	t0,16(sp)
    c0000106:	ec1a                	sd	t1,24(sp)
    c0000108:	f01e                	sd	t2,32(sp)
    c000010a:	f422                	sd	s0,40(sp)
    c000010c:	f826                	sd	s1,48(sp)
    c000010e:	fc2a                	sd	a0,56(sp)
    c0000110:	e0ae                	sd	a1,64(sp)
    c0000112:	e4b2                	sd	a2,72(sp)
    c0000114:	e8b6                	sd	a3,80(sp)
    c0000116:	ecba                	sd	a4,88(sp)
    c0000118:	f0be                	sd	a5,96(sp)
    c000011a:	f4c2                	sd	a6,104(sp)
    c000011c:	f8c6                	sd	a7,112(sp)
    c000011e:	fcca                	sd	s2,120(sp)
    c0000120:	e14e                	sd	s3,128(sp)
    c0000122:	e552                	sd	s4,136(sp)
    c0000124:	e956                	sd	s5,144(sp)
    c0000126:	ed5a                	sd	s6,152(sp)
    c0000128:	f15e                	sd	s7,160(sp)
    c000012a:	f562                	sd	s8,168(sp)
    c000012c:	f966                	sd	s9,176(sp)
    c000012e:	fd6a                	sd	s10,184(sp)
    c0000130:	e1ee                	sd	s11,192(sp)
    c0000132:	e5f2                	sd	t3,200(sp)
    c0000134:	e9f6                	sd	t4,208(sp)
    c0000136:	edfa                	sd	t5,216(sp)
    c0000138:	f1fe                	sd	t6,224(sp)
    c000013a:	300022f3          	csrr	t0,mstatus
    c000013e:	f596                	sd	t0,232(sp)

00000000c0000140 <.Lpcrel_hi0>:
    c0000140:	00080297          	auipc	t0,0x80
    c0000144:	3d02b283          	ld	t0,976(t0) # c0080510 <pxCurrentTCB>
    c0000148:	0022b023          	sd	sp,0(t0)
    c000014c:	34202573          	csrr	a0,mcause
    c0000150:	341025f3          	csrr	a1,mepc

00000000c0000154 <test_if_asynchronous>:
    c0000154:	03f55613          	srli	a2,a0,0x3f
    c0000158:	c225                	beqz	a2,c00001b8 <handle_synchronous>
    c000015a:	e02e                	sd	a1,0(sp)

00000000c000015c <handle_asynchronous>:
    c000015c:	4285                	li	t0,1
    c000015e:	12fe                	slli	t0,t0,0x3f
    c0000160:	00728313          	addi	t1,t0,7
    c0000164:	04651063          	bne	a0,t1,c00001a4 <test_if_external_interrupt>

00000000c0000168 <.Lpcrel_hi1>:
    c0000168:	00080297          	auipc	t0,0x80
    c000016c:	3a02b283          	ld	t0,928(t0) # c0080508 <pullMachineTimerCompareRegister>

00000000c0000170 <.Lpcrel_hi2>:
    c0000170:	00080317          	auipc	t1,0x80
    c0000174:	4c033303          	ld	t1,1216(t1) # c0080630 <__sbss_end>
    c0000178:	00033383          	ld	t2,0(t1)
    c000017c:	0072b023          	sd	t2,0(t0)

00000000c0000180 <.Lpcrel_hi3>:
    c0000180:	00080297          	auipc	t0,0x80
    c0000184:	e882b283          	ld	t0,-376(t0) # c0080008 <uxTimerIncrementsForOneTick>
    c0000188:	00728eb3          	add	t4,t0,t2
    c000018c:	01d33023          	sd	t4,0(t1)

00000000c0000190 <.Lpcrel_hi4>:
    c0000190:	00080117          	auipc	sp,0x80
    c0000194:	e7013103          	ld	sp,-400(sp) # c0080000 <xISRStackTop>
    c0000198:	7b9030ef          	jal	ra,c0004150 <xTaskIncrementTick>
    c000019c:	c521                	beqz	a0,c00001e4 <processed_source>
    c000019e:	131030ef          	jal	ra,c0003ace <vTaskSwitchContext>
    c00001a2:	a089                	j	c00001e4 <processed_source>

00000000c00001a4 <test_if_external_interrupt>:
    c00001a4:	0311                	addi	t1,t1,4
    c00001a6:	02651c63          	bne	a0,t1,c00001de <as_yet_unhandled>

00000000c00001aa <.Lpcrel_hi5>:
    c00001aa:	00080117          	auipc	sp,0x80
    c00001ae:	e5613103          	ld	sp,-426(sp) # c0080000 <xISRStackTop>
    c00001b2:	7e3090ef          	jal	ra,c000a194 <external_interrupt_handler>
    c00001b6:	a03d                	j	c00001e4 <processed_source>

00000000c00001b8 <handle_synchronous>:
    c00001b8:	0591                	addi	a1,a1,4
    c00001ba:	e02e                	sd	a1,0(sp)

00000000c00001bc <test_if_environment_call>:
    c00001bc:	42ad                	li	t0,11
    c00001be:	00551963          	bne	a0,t0,c00001d0 <is_exception>

00000000c00001c2 <.Lpcrel_hi6>:
    c00001c2:	00080117          	auipc	sp,0x80
    c00001c6:	e3e13103          	ld	sp,-450(sp) # c0080000 <xISRStackTop>
    c00001ca:	105030ef          	jal	ra,c0003ace <vTaskSwitchContext>
    c00001ce:	a819                	j	c00001e4 <processed_source>

00000000c00001d0 <is_exception>:
    c00001d0:	342022f3          	csrr	t0,mcause
    c00001d4:	34102373          	csrr	t1,mepc
    c00001d8:	300023f3          	csrr	t2,mstatus
    c00001dc:	bfd5                	j	c00001d0 <is_exception>

00000000c00001de <as_yet_unhandled>:
    c00001de:	342022f3          	csrr	t0,mcause
    c00001e2:	bff5                	j	c00001de <as_yet_unhandled>

00000000c00001e4 <processed_source>:
    c00001e4:	00080317          	auipc	t1,0x80
    c00001e8:	32c33303          	ld	t1,812(t1) # c0080510 <pxCurrentTCB>
    c00001ec:	00033103          	ld	sp,0(t1)
    c00001f0:	6282                	ld	t0,0(sp)
    c00001f2:	34129073          	csrw	mepc,t0
    c00001f6:	72ae                	ld	t0,232(sp)
    c00001f8:	30029073          	csrw	mstatus,t0
    c00001fc:	60a2                	ld	ra,8(sp)
    c00001fe:	62c2                	ld	t0,16(sp)
    c0000200:	6362                	ld	t1,24(sp)
    c0000202:	7382                	ld	t2,32(sp)
    c0000204:	7422                	ld	s0,40(sp)
    c0000206:	74c2                	ld	s1,48(sp)
    c0000208:	7562                	ld	a0,56(sp)
    c000020a:	6586                	ld	a1,64(sp)
    c000020c:	6626                	ld	a2,72(sp)
    c000020e:	66c6                	ld	a3,80(sp)
    c0000210:	6766                	ld	a4,88(sp)
    c0000212:	7786                	ld	a5,96(sp)
    c0000214:	7826                	ld	a6,104(sp)
    c0000216:	78c6                	ld	a7,112(sp)
    c0000218:	7966                	ld	s2,120(sp)
    c000021a:	698a                	ld	s3,128(sp)
    c000021c:	6a2a                	ld	s4,136(sp)
    c000021e:	6aca                	ld	s5,144(sp)
    c0000220:	6b6a                	ld	s6,152(sp)
    c0000222:	7b8a                	ld	s7,160(sp)
    c0000224:	7c2a                	ld	s8,168(sp)
    c0000226:	7cca                	ld	s9,176(sp)
    c0000228:	7d6a                	ld	s10,184(sp)
    c000022a:	6d8e                	ld	s11,192(sp)
    c000022c:	6e2e                	ld	t3,200(sp)
    c000022e:	6ece                	ld	t4,208(sp)
    c0000230:	6f6e                	ld	t5,216(sp)
    c0000232:	7f8e                	ld	t6,224(sp)
    c0000234:	616d                	addi	sp,sp,240
    c0000236:	30200073          	mret
    c000023a:	00000013          	nop
    c000023e:	00000013          	nop
    c0000242:	00000013          	nop
    c0000246:	00000013          	nop
    c000024a:	00000013          	nop
    c000024e:	00000013          	nop
    c0000252:	00000013          	nop
    c0000256:	00000013          	nop
    c000025a:	00000013          	nop
    c000025e:	00000013          	nop
    c0000262:	00000013          	nop
    c0000266:	00000013          	nop
    c000026a:	00000013          	nop
    c000026e:	00000013          	nop
    c0000272:	00000013          	nop
    c0000276:	00000013          	nop
    c000027a:	00000013          	nop
    c000027e:	00000013          	nop
    c0000282:	00000013          	nop
    c0000286:	00000013          	nop
    c000028a:	00000013          	nop
    c000028e:	00000013          	nop
    c0000292:	00000013          	nop
    c0000296:	00000013          	nop
    c000029a:	00000013          	nop
    c000029e:	00000013          	nop
    c00002a2:	00000013          	nop
    c00002a6:	00000013          	nop
    c00002aa:	00000013          	nop
    c00002ae:	00000013          	nop
    c00002b2:	00000013          	nop
    c00002b6:	00000013          	nop
    c00002ba:	00000013          	nop
    c00002be:	00000013          	nop
    c00002c2:	00000013          	nop
    c00002c6:	00000013          	nop
    c00002ca:	00000013          	nop
    c00002ce:	00000013          	nop
    c00002d2:	00000013          	nop
    c00002d6:	00000013          	nop
    c00002da:	00000013          	nop
    c00002de:	00000013          	nop
    c00002e2:	00000013          	nop
    c00002e6:	00000013          	nop
    c00002ea:	00000013          	nop
    c00002ee:	00000013          	nop
    c00002f2:	00000013          	nop
    c00002f6:	00000013          	nop
    c00002fa:	00000013          	nop
    c00002fe:	0001                	nop

00000000c0000300 <xPortStartFirstTask>:
    c0000300:	00000297          	auipc	t0,0x0
    c0000304:	e0028293          	addi	t0,t0,-512 # c0000100 <freertos_risc_v_trap_handler>
    c0000308:	30529073          	csrw	mtvec,t0

00000000c000030c <.Lpcrel_hi9>:
    c000030c:	00080117          	auipc	sp,0x80
    c0000310:	20413103          	ld	sp,516(sp) # c0080510 <pxCurrentTCB>
    c0000314:	6102                	ld	sp,0(sp)
    c0000316:	6082                	ld	ra,0(sp)
    c0000318:	72ae                	ld	t0,232(sp)
    c000031a:	02a1                	addi	t0,t0,8
    c000031c:	30029073          	csrw	mstatus,t0
    c0000320:	62c2                	ld	t0,16(sp)
    c0000322:	6362                	ld	t1,24(sp)
    c0000324:	7382                	ld	t2,32(sp)
    c0000326:	7422                	ld	s0,40(sp)
    c0000328:	74c2                	ld	s1,48(sp)
    c000032a:	7562                	ld	a0,56(sp)
    c000032c:	6586                	ld	a1,64(sp)
    c000032e:	6626                	ld	a2,72(sp)
    c0000330:	66c6                	ld	a3,80(sp)
    c0000332:	6766                	ld	a4,88(sp)
    c0000334:	7786                	ld	a5,96(sp)
    c0000336:	7826                	ld	a6,104(sp)
    c0000338:	78c6                	ld	a7,112(sp)
    c000033a:	7966                	ld	s2,120(sp)
    c000033c:	698a                	ld	s3,128(sp)
    c000033e:	6a2a                	ld	s4,136(sp)
    c0000340:	6aca                	ld	s5,144(sp)
    c0000342:	6b6a                	ld	s6,152(sp)
    c0000344:	7b8a                	ld	s7,160(sp)
    c0000346:	7c2a                	ld	s8,168(sp)
    c0000348:	7cca                	ld	s9,176(sp)
    c000034a:	7d6a                	ld	s10,184(sp)
    c000034c:	6d8e                	ld	s11,192(sp)
    c000034e:	6e2e                	ld	t3,200(sp)
    c0000350:	6ece                	ld	t4,208(sp)
    c0000352:	6f6e                	ld	t5,216(sp)
    c0000354:	7f8e                	ld	t6,224(sp)
    c0000356:	616d                	addi	sp,sp,240
    c0000358:	8082                	ret

00000000c000035a <xPortStartFirstTaskEnd>:
    c000035a:	00000013          	nop
    c000035e:	00000013          	nop
    c0000362:	00000013          	nop
    c0000366:	00000013          	nop
    c000036a:	00000013          	nop
    c000036e:	00000013          	nop
    c0000372:	00000013          	nop
    c0000376:	00000013          	nop
    c000037a:	00000013          	nop
    c000037e:	00000013          	nop
    c0000382:	00000013          	nop
    c0000386:	00000013          	nop
    c000038a:	00000013          	nop
    c000038e:	00000013          	nop
    c0000392:	00000013          	nop
    c0000396:	00000013          	nop
    c000039a:	00000013          	nop
    c000039e:	00000013          	nop
    c00003a2:	00000013          	nop
    c00003a6:	00000013          	nop
    c00003aa:	00000013          	nop
    c00003ae:	00000013          	nop
    c00003b2:	00000013          	nop
    c00003b6:	00000013          	nop
    c00003ba:	00000013          	nop
    c00003be:	00000013          	nop
    c00003c2:	00000013          	nop
    c00003c6:	00000013          	nop
    c00003ca:	00000013          	nop
    c00003ce:	00000013          	nop
    c00003d2:	00000013          	nop
    c00003d6:	00000013          	nop
    c00003da:	00000013          	nop
    c00003de:	00000013          	nop
    c00003e2:	00000013          	nop
    c00003e6:	00000013          	nop
    c00003ea:	00000013          	nop
    c00003ee:	00000013          	nop
    c00003f2:	00000013          	nop
    c00003f6:	00000013          	nop
    c00003fa:	00000013          	nop
    c00003fe:	0001                	nop

00000000c0000400 <pxPortInitialiseStack>:
    c0000400:	300022f3          	csrr	t0,mstatus
    c0000404:	18800313          	li	t1,392
    c0000408:	0312                	slli	t1,t1,0x4
    c000040a:	0062e2b3          	or	t0,t0,t1
    c000040e:	1561                	addi	a0,a0,-8
    c0000410:	00553023          	sd	t0,0(a0)
    c0000414:	f5050513          	addi	a0,a0,-176
    c0000418:	e110                	sd	a2,0(a0)
    c000041a:	fd050513          	addi	a0,a0,-48
    c000041e:	00053023          	sd	zero,0(a0)
    c0000422:	4281                	li	t0,0

00000000c0000424 <chip_specific_stack_frame>:
    c0000424:	00028763          	beqz	t0,c0000432 <chip_specific_stack_frame+0xe>
    c0000428:	1561                	addi	a0,a0,-8
    c000042a:	00053023          	sd	zero,0(a0)
    c000042e:	12fd                	addi	t0,t0,-1
    c0000430:	bfd5                	j	c0000424 <chip_specific_stack_frame>
    c0000432:	1561                	addi	a0,a0,-8
    c0000434:	e10c                	sd	a1,0(a0)
    c0000436:	8082                	ret

00000000c0000438 <vPortSetupTimerInterrupt>:
    c0000438:	7179                	addi	sp,sp,-48
    c000043a:	f406                	sd	ra,40(sp)
    c000043c:	f022                	sd	s0,32(sp)
    c000043e:	1800                	addi	s0,sp,48
    c0000440:	1000c537          	lui	a0,0x1000c
    c0000444:	ffc5059b          	addiw	a1,a0,-4
    c0000448:	feb43023          	sd	a1,-32(s0)
    c000044c:	3561                	addiw	a0,a0,-8
    c000044e:	fca43c23          	sd	a0,-40(s0)
    c0000452:	f1402573          	csrr	a0,mhartid
    c0000456:	fca42a23          	sw	a0,-44(s0)
    c000045a:	fd446503          	lwu	a0,-44(s0)
    c000045e:	050e                	slli	a0,a0,0x3
    c0000460:	100045b7          	lui	a1,0x10004
    c0000464:	952e                	add	a0,a0,a1

00000000c0000466 <.LBB0_4>:
    c0000466:	00080597          	auipc	a1,0x80
    c000046a:	0a258593          	addi	a1,a1,162 # c0080508 <pullMachineTimerCompareRegister>
    c000046e:	e188                	sd	a0,0(a1)
    c0000470:	0040006f          	j	c0000474 <.LBB0_4+0xe>
    c0000474:	1000c537          	lui	a0,0x1000c
    c0000478:	ffc5059b          	addiw	a1,a0,-4
    c000047c:	418c                	lw	a1,0(a1)
    c000047e:	feb42623          	sw	a1,-20(s0)
    c0000482:	3561                	addiw	a0,a0,-8
    c0000484:	4108                	lw	a0,0(a0)
    c0000486:	fea42423          	sw	a0,-24(s0)
    c000048a:	0040006f          	j	c000048e <.LBB0_4+0x28>
    c000048e:	fec42503          	lw	a0,-20(s0)
    c0000492:	1000c5b7          	lui	a1,0x1000c
    c0000496:	35f1                	addiw	a1,a1,-4
    c0000498:	418c                	lw	a1,0(a1)
    c000049a:	fcb51de3          	bne	a0,a1,c0000474 <.LBB0_4+0xe>
    c000049e:	0040006f          	j	c00004a2 <.LBB0_4+0x3c>
    c00004a2:	fec46503          	lwu	a0,-20(s0)

00000000c00004a6 <.LBB0_5>:
    c00004a6:	00080597          	auipc	a1,0x80
    c00004aa:	05a58593          	addi	a1,a1,90 # c0080500 <__rodata_end>
    c00004ae:	e188                	sd	a0,0(a1)
    c00004b0:	6188                	ld	a0,0(a1)
    c00004b2:	1502                	slli	a0,a0,0x20
    c00004b4:	e188                	sd	a0,0(a1)
    c00004b6:	fe846503          	lwu	a0,-24(s0)
    c00004ba:	6190                	ld	a2,0(a1)
    c00004bc:	8d51                	or	a0,a0,a2
    c00004be:	e188                	sd	a0,0(a1)
    c00004c0:	6188                	ld	a0,0(a1)
    c00004c2:	3e850513          	addi	a0,a0,1000 # 1000c3e8 <.Lline_table_start0+0x100039df>
    c00004c6:	e188                	sd	a0,0(a1)
    c00004c8:	6188                	ld	a0,0(a1)

00000000c00004ca <.LBB0_6>:
    c00004ca:	00080617          	auipc	a2,0x80
    c00004ce:	03e60613          	addi	a2,a2,62 # c0080508 <pullMachineTimerCompareRegister>
    c00004d2:	6210                	ld	a2,0(a2)
    c00004d4:	e208                	sd	a0,0(a2)
    c00004d6:	6188                	ld	a0,0(a1)
    c00004d8:	3e850513          	addi	a0,a0,1000
    c00004dc:	e188                	sd	a0,0(a1)
    c00004de:	7402                	ld	s0,32(sp)
    c00004e0:	70a2                	ld	ra,40(sp)
    c00004e2:	6145                	addi	sp,sp,48
    c00004e4:	8082                	ret

00000000c00004e6 <xPortStartScheduler>:
    c00004e6:	1101                	addi	sp,sp,-32
    c00004e8:	ec06                	sd	ra,24(sp)
    c00004ea:	e822                	sd	s0,16(sp)
    c00004ec:	1000                	addi	s0,sp,32
    c00004ee:	4501                	li	a0,0
    c00004f0:	fea42623          	sw	a0,-20(s0)
    c00004f4:	305025f3          	csrr	a1,mtvec
    c00004f8:	feb42623          	sw	a1,-20(s0)
    c00004fc:	fec46583          	lwu	a1,-20(s0)
    c0000500:	898d                	andi	a1,a1,3
    c0000502:	00a58b63          	beq	a1,a0,c0000518 <.LBB1_7>
    c0000506:	0040006f          	j	c000050a <xPortStartScheduler+0x24>
    c000050a:	30047073          	csrci	mstatus,8
    c000050e:	9002                	ebreak
    c0000510:	0040006f          	j	c0000514 <xPortStartScheduler+0x2e>
    c0000514:	0000006f          	j	c0000514 <xPortStartScheduler+0x2e>

00000000c0000518 <.LBB1_7>:
    c0000518:	000ca517          	auipc	a0,0xca
    c000051c:	2e850513          	addi	a0,a0,744 # c00ca800 <__freertos_irq_stack_top>
    c0000520:	893d                	andi	a0,a0,15
    c0000522:	4581                	li	a1,0
    c0000524:	00b50b63          	beq	a0,a1,c000053a <.LBB1_7+0x22>
    c0000528:	0040006f          	j	c000052c <.LBB1_7+0x14>
    c000052c:	30047073          	csrci	mstatus,8
    c0000530:	9002                	ebreak
    c0000532:	0040006f          	j	c0000536 <.LBB1_7+0x1e>
    c0000536:	0000006f          	j	c0000536 <.LBB1_7+0x1e>
    c000053a:	00000097          	auipc	ra,0x0
    c000053e:	efe080e7          	jalr	-258(ra) # c0000438 <vPortSetupTimerInterrupt>
    c0000542:	6505                	lui	a0,0x1
    c0000544:	8805051b          	addiw	a0,a0,-1920
    c0000548:	30452073          	csrs	mie,a0
    c000054c:	00000097          	auipc	ra,0x0
    c0000550:	db4080e7          	jalr	-588(ra) # c0000300 <xPortStartFirstTask>
    c0000554:	4501                	li	a0,0
    c0000556:	6442                	ld	s0,16(sp)
    c0000558:	60e2                	ld	ra,24(sp)
    c000055a:	6105                	addi	sp,sp,32
    c000055c:	8082                	ret

00000000c000055e <vPortEndScheduler>:
    c000055e:	1141                	addi	sp,sp,-16
    c0000560:	e406                	sd	ra,8(sp)
    c0000562:	e022                	sd	s0,0(sp)
    c0000564:	0800                	addi	s0,sp,16
    c0000566:	0040006f          	j	c000056a <vPortEndScheduler+0xc>
    c000056a:	0000006f          	j	c000056a <vPortEndScheduler+0xc>
	...

00000000c0000570 <vListInitialise>:
    c0000570:	1101                	addi	sp,sp,-32
    c0000572:	ec06                	sd	ra,24(sp)
    c0000574:	e822                	sd	s0,16(sp)
    c0000576:	1000                	addi	s0,sp,32
    c0000578:	fea43423          	sd	a0,-24(s0)
    c000057c:	fe843503          	ld	a0,-24(s0)
    c0000580:	01050593          	addi	a1,a0,16 # 1010 <.Lline_table_start0+0x969>
    c0000584:	e50c                	sd	a1,8(a0)
    c0000586:	fe843503          	ld	a0,-24(s0)
    c000058a:	55fd                	li	a1,-1
    c000058c:	e90c                	sd	a1,16(a0)
    c000058e:	fe843503          	ld	a0,-24(s0)
    c0000592:	01050593          	addi	a1,a0,16
    c0000596:	ed0c                	sd	a1,24(a0)
    c0000598:	fe843503          	ld	a0,-24(s0)
    c000059c:	01050593          	addi	a1,a0,16
    c00005a0:	f10c                	sd	a1,32(a0)
    c00005a2:	fe843503          	ld	a0,-24(s0)
    c00005a6:	4581                	li	a1,0
    c00005a8:	e10c                	sd	a1,0(a0)
    c00005aa:	6442                	ld	s0,16(sp)
    c00005ac:	60e2                	ld	ra,24(sp)
    c00005ae:	6105                	addi	sp,sp,32
    c00005b0:	8082                	ret

00000000c00005b2 <vListInitialiseItem>:
    c00005b2:	1101                	addi	sp,sp,-32
    c00005b4:	ec06                	sd	ra,24(sp)
    c00005b6:	e822                	sd	s0,16(sp)
    c00005b8:	1000                	addi	s0,sp,32
    c00005ba:	fea43423          	sd	a0,-24(s0)
    c00005be:	fe843503          	ld	a0,-24(s0)
    c00005c2:	4581                	li	a1,0
    c00005c4:	f10c                	sd	a1,32(a0)
    c00005c6:	6442                	ld	s0,16(sp)
    c00005c8:	60e2                	ld	ra,24(sp)
    c00005ca:	6105                	addi	sp,sp,32
    c00005cc:	8082                	ret

00000000c00005ce <vListInsertEnd>:
    c00005ce:	7179                	addi	sp,sp,-48
    c00005d0:	f406                	sd	ra,40(sp)
    c00005d2:	f022                	sd	s0,32(sp)
    c00005d4:	1800                	addi	s0,sp,48
    c00005d6:	fea43423          	sd	a0,-24(s0)
    c00005da:	feb43023          	sd	a1,-32(s0)
    c00005de:	fe843503          	ld	a0,-24(s0)
    c00005e2:	6508                	ld	a0,8(a0)
    c00005e4:	fca43c23          	sd	a0,-40(s0)
    c00005e8:	fd843503          	ld	a0,-40(s0)
    c00005ec:	fe043583          	ld	a1,-32(s0)
    c00005f0:	e588                	sd	a0,8(a1)
    c00005f2:	fd843503          	ld	a0,-40(s0)
    c00005f6:	6908                	ld	a0,16(a0)
    c00005f8:	fe043583          	ld	a1,-32(s0)
    c00005fc:	e988                	sd	a0,16(a1)
    c00005fe:	fe043503          	ld	a0,-32(s0)
    c0000602:	fd843583          	ld	a1,-40(s0)
    c0000606:	698c                	ld	a1,16(a1)
    c0000608:	e588                	sd	a0,8(a1)
    c000060a:	fe043503          	ld	a0,-32(s0)
    c000060e:	fd843583          	ld	a1,-40(s0)
    c0000612:	e988                	sd	a0,16(a1)
    c0000614:	fe843503          	ld	a0,-24(s0)
    c0000618:	fe043583          	ld	a1,-32(s0)
    c000061c:	f188                	sd	a0,32(a1)
    c000061e:	fe843503          	ld	a0,-24(s0)
    c0000622:	610c                	ld	a1,0(a0)
    c0000624:	0585                	addi	a1,a1,1
    c0000626:	e10c                	sd	a1,0(a0)
    c0000628:	7402                	ld	s0,32(sp)
    c000062a:	70a2                	ld	ra,40(sp)
    c000062c:	6145                	addi	sp,sp,48
    c000062e:	8082                	ret

00000000c0000630 <vListInsert>:
    c0000630:	7179                	addi	sp,sp,-48
    c0000632:	f406                	sd	ra,40(sp)
    c0000634:	f022                	sd	s0,32(sp)
    c0000636:	1800                	addi	s0,sp,48
    c0000638:	fea43423          	sd	a0,-24(s0)
    c000063c:	feb43023          	sd	a1,-32(s0)
    c0000640:	fe043503          	ld	a0,-32(s0)
    c0000644:	6108                	ld	a0,0(a0)
    c0000646:	fca43823          	sd	a0,-48(s0)
    c000064a:	fd043503          	ld	a0,-48(s0)
    c000064e:	55fd                	li	a1,-1
    c0000650:	00b51b63          	bne	a0,a1,c0000666 <vListInsert+0x36>
    c0000654:	0040006f          	j	c0000658 <vListInsert+0x28>
    c0000658:	fe843503          	ld	a0,-24(s0)
    c000065c:	7108                	ld	a0,32(a0)
    c000065e:	fca43c23          	sd	a0,-40(s0)
    c0000662:	03c0006f          	j	c000069e <vListInsert+0x6e>
    c0000666:	fe843503          	ld	a0,-24(s0)
    c000066a:	0541                	addi	a0,a0,16
    c000066c:	fca43c23          	sd	a0,-40(s0)
    c0000670:	0040006f          	j	c0000674 <vListInsert+0x44>
    c0000674:	fd843503          	ld	a0,-40(s0)
    c0000678:	6508                	ld	a0,8(a0)
    c000067a:	6108                	ld	a0,0(a0)
    c000067c:	fd043583          	ld	a1,-48(s0)
    c0000680:	00a5ed63          	bltu	a1,a0,c000069a <vListInsert+0x6a>
    c0000684:	0040006f          	j	c0000688 <vListInsert+0x58>
    c0000688:	0040006f          	j	c000068c <vListInsert+0x5c>
    c000068c:	fd843503          	ld	a0,-40(s0)
    c0000690:	6508                	ld	a0,8(a0)
    c0000692:	fca43c23          	sd	a0,-40(s0)
    c0000696:	fdfff06f          	j	c0000674 <vListInsert+0x44>
    c000069a:	0040006f          	j	c000069e <vListInsert+0x6e>
    c000069e:	fd843503          	ld	a0,-40(s0)
    c00006a2:	6508                	ld	a0,8(a0)
    c00006a4:	fe043583          	ld	a1,-32(s0)
    c00006a8:	e588                	sd	a0,8(a1)
    c00006aa:	fe043503          	ld	a0,-32(s0)
    c00006ae:	650c                	ld	a1,8(a0)
    c00006b0:	e988                	sd	a0,16(a1)
    c00006b2:	fd843503          	ld	a0,-40(s0)
    c00006b6:	fe043583          	ld	a1,-32(s0)
    c00006ba:	e988                	sd	a0,16(a1)
    c00006bc:	fe043503          	ld	a0,-32(s0)
    c00006c0:	fd843583          	ld	a1,-40(s0)
    c00006c4:	e588                	sd	a0,8(a1)
    c00006c6:	fe843503          	ld	a0,-24(s0)
    c00006ca:	fe043583          	ld	a1,-32(s0)
    c00006ce:	f188                	sd	a0,32(a1)
    c00006d0:	fe843503          	ld	a0,-24(s0)
    c00006d4:	610c                	ld	a1,0(a0)
    c00006d6:	0585                	addi	a1,a1,1
    c00006d8:	e10c                	sd	a1,0(a0)
    c00006da:	7402                	ld	s0,32(sp)
    c00006dc:	70a2                	ld	ra,40(sp)
    c00006de:	6145                	addi	sp,sp,48
    c00006e0:	8082                	ret

00000000c00006e2 <uxListRemove>:
    c00006e2:	1101                	addi	sp,sp,-32
    c00006e4:	ec06                	sd	ra,24(sp)
    c00006e6:	e822                	sd	s0,16(sp)
    c00006e8:	1000                	addi	s0,sp,32
    c00006ea:	fea43423          	sd	a0,-24(s0)
    c00006ee:	fe843503          	ld	a0,-24(s0)
    c00006f2:	7108                	ld	a0,32(a0)
    c00006f4:	fea43023          	sd	a0,-32(s0)
    c00006f8:	fe843503          	ld	a0,-24(s0)
    c00006fc:	690c                	ld	a1,16(a0)
    c00006fe:	6508                	ld	a0,8(a0)
    c0000700:	e90c                	sd	a1,16(a0)
    c0000702:	fe843503          	ld	a0,-24(s0)
    c0000706:	650c                	ld	a1,8(a0)
    c0000708:	6908                	ld	a0,16(a0)
    c000070a:	e50c                	sd	a1,8(a0)
    c000070c:	fe043503          	ld	a0,-32(s0)
    c0000710:	6508                	ld	a0,8(a0)
    c0000712:	fe843583          	ld	a1,-24(s0)
    c0000716:	00b51c63          	bne	a0,a1,c000072e <uxListRemove+0x4c>
    c000071a:	0040006f          	j	c000071e <uxListRemove+0x3c>
    c000071e:	fe843503          	ld	a0,-24(s0)
    c0000722:	6908                	ld	a0,16(a0)
    c0000724:	fe043583          	ld	a1,-32(s0)
    c0000728:	e588                	sd	a0,8(a1)
    c000072a:	0080006f          	j	c0000732 <uxListRemove+0x50>
    c000072e:	0040006f          	j	c0000732 <uxListRemove+0x50>
    c0000732:	fe843503          	ld	a0,-24(s0)
    c0000736:	4581                	li	a1,0
    c0000738:	f10c                	sd	a1,32(a0)
    c000073a:	fe043503          	ld	a0,-32(s0)
    c000073e:	610c                	ld	a1,0(a0)
    c0000740:	15fd                	addi	a1,a1,-1
    c0000742:	e10c                	sd	a1,0(a0)
    c0000744:	fe043503          	ld	a0,-32(s0)
    c0000748:	6108                	ld	a0,0(a0)
    c000074a:	6442                	ld	s0,16(sp)
    c000074c:	60e2                	ld	ra,24(sp)
    c000074e:	6105                	addi	sp,sp,32
    c0000750:	8082                	ret
	...

00000000c0000754 <xQueueGenericReset>:
    c0000754:	7179                	addi	sp,sp,-48
    c0000756:	f406                	sd	ra,40(sp)
    c0000758:	f022                	sd	s0,32(sp)
    c000075a:	1800                	addi	s0,sp,48
    c000075c:	fea43423          	sd	a0,-24(s0)
    c0000760:	feb43023          	sd	a1,-32(s0)
    c0000764:	fe843503          	ld	a0,-24(s0)
    c0000768:	fca43c23          	sd	a0,-40(s0)
    c000076c:	fd843503          	ld	a0,-40(s0)
    c0000770:	4581                	li	a1,0
    c0000772:	00b51b63          	bne	a0,a1,c0000788 <xQueueGenericReset+0x34>
    c0000776:	0040006f          	j	c000077a <xQueueGenericReset+0x26>
    c000077a:	30047073          	csrci	mstatus,8
    c000077e:	9002                	ebreak
    c0000780:	0040006f          	j	c0000784 <xQueueGenericReset+0x30>
    c0000784:	0000006f          	j	c0000784 <xQueueGenericReset+0x30>
    c0000788:	00002097          	auipc	ra,0x2
    c000078c:	59a080e7          	jalr	1434(ra) # c0002d22 <vTaskEnterCritical>
    c0000790:	fd843503          	ld	a0,-40(s0)
    c0000794:	610c                	ld	a1,0(a0)
    c0000796:	7d30                	ld	a2,120(a0)
    c0000798:	6154                	ld	a3,128(a0)
    c000079a:	02d60633          	mul	a2,a2,a3
    c000079e:	95b2                	add	a1,a1,a2
    c00007a0:	e90c                	sd	a1,16(a0)
    c00007a2:	fd843503          	ld	a0,-40(s0)
    c00007a6:	4581                	li	a1,0
    c00007a8:	f92c                	sd	a1,112(a0)
    c00007aa:	fd843503          	ld	a0,-40(s0)
    c00007ae:	6110                	ld	a2,0(a0)
    c00007b0:	e510                	sd	a2,8(a0)
    c00007b2:	fd843503          	ld	a0,-40(s0)
    c00007b6:	6110                	ld	a2,0(a0)
    c00007b8:	7d34                	ld	a3,120(a0)
    c00007ba:	16fd                	addi	a3,a3,-1
    c00007bc:	6158                	ld	a4,128(a0)
    c00007be:	02e686b3          	mul	a3,a3,a4
    c00007c2:	9636                	add	a2,a2,a3
    c00007c4:	ed10                	sd	a2,24(a0)
    c00007c6:	fd843503          	ld	a0,-40(s0)
    c00007ca:	0ff00613          	li	a2,255
    c00007ce:	08c50423          	sb	a2,136(a0)
    c00007d2:	fd843503          	ld	a0,-40(s0)
    c00007d6:	08c504a3          	sb	a2,137(a0)
    c00007da:	fe043503          	ld	a0,-32(s0)
    c00007de:	04b51563          	bne	a0,a1,c0000828 <xQueueGenericReset+0xd4>
    c00007e2:	0040006f          	j	c00007e6 <xQueueGenericReset+0x92>
    c00007e6:	fd843503          	ld	a0,-40(s0)
    c00007ea:	7108                	ld	a0,32(a0)
    c00007ec:	4581                	li	a1,0
    c00007ee:	02b50963          	beq	a0,a1,c0000820 <xQueueGenericReset+0xcc>
    c00007f2:	0040006f          	j	c00007f6 <xQueueGenericReset+0xa2>
    c00007f6:	fd843503          	ld	a0,-40(s0)
    c00007fa:	02050513          	addi	a0,a0,32
    c00007fe:	00004097          	auipc	ra,0x4
    c0000802:	660080e7          	jalr	1632(ra) # c0004e5e <xTaskRemoveFromEventList>
    c0000806:	4581                	li	a1,0
    c0000808:	00b50863          	beq	a0,a1,c0000818 <xQueueGenericReset+0xc4>
    c000080c:	0040006f          	j	c0000810 <xQueueGenericReset+0xbc>
    c0000810:	00000073          	ecall
    c0000814:	0080006f          	j	c000081c <xQueueGenericReset+0xc8>
    c0000818:	0040006f          	j	c000081c <xQueueGenericReset+0xc8>
    c000081c:	0080006f          	j	c0000824 <xQueueGenericReset+0xd0>
    c0000820:	0040006f          	j	c0000824 <xQueueGenericReset+0xd0>
    c0000824:	0280006f          	j	c000084c <xQueueGenericReset+0xf8>
    c0000828:	fd843503          	ld	a0,-40(s0)
    c000082c:	02050513          	addi	a0,a0,32
    c0000830:	00000097          	auipc	ra,0x0
    c0000834:	d40080e7          	jalr	-704(ra) # c0000570 <vListInitialise>
    c0000838:	fd843503          	ld	a0,-40(s0)
    c000083c:	04850513          	addi	a0,a0,72
    c0000840:	00000097          	auipc	ra,0x0
    c0000844:	d30080e7          	jalr	-720(ra) # c0000570 <vListInitialise>
    c0000848:	0040006f          	j	c000084c <xQueueGenericReset+0xf8>
    c000084c:	00002097          	auipc	ra,0x2
    c0000850:	5b2080e7          	jalr	1458(ra) # c0002dfe <vTaskExitCritical>
    c0000854:	4505                	li	a0,1
    c0000856:	7402                	ld	s0,32(sp)
    c0000858:	70a2                	ld	ra,40(sp)
    c000085a:	6145                	addi	sp,sp,48
    c000085c:	8082                	ret

00000000c000085e <xQueueGenericCreate>:
    c000085e:	7139                	addi	sp,sp,-64
    c0000860:	fc06                	sd	ra,56(sp)
    c0000862:	f822                	sd	s0,48(sp)
    c0000864:	0080                	addi	s0,sp,64
    c0000866:	86b2                	mv	a3,a2
    c0000868:	fea43423          	sd	a0,-24(s0)
    c000086c:	feb43023          	sd	a1,-32(s0)
    c0000870:	fcc40fa3          	sb	a2,-33(s0)
    c0000874:	fe843503          	ld	a0,-24(s0)
    c0000878:	4581                	li	a1,0
    c000087a:	00b51b63          	bne	a0,a1,c0000890 <xQueueGenericCreate+0x32>
    c000087e:	0040006f          	j	c0000882 <xQueueGenericCreate+0x24>
    c0000882:	30047073          	csrci	mstatus,8
    c0000886:	9002                	ebreak
    c0000888:	0040006f          	j	c000088c <xQueueGenericCreate+0x2e>
    c000088c:	0000006f          	j	c000088c <xQueueGenericCreate+0x2e>
    c0000890:	fe843503          	ld	a0,-24(s0)
    c0000894:	fe043583          	ld	a1,-32(s0)
    c0000898:	02b50533          	mul	a0,a0,a1
    c000089c:	fca43423          	sd	a0,-56(s0)
    c00008a0:	fc843503          	ld	a0,-56(s0)
    c00008a4:	0a050513          	addi	a0,a0,160
    c00008a8:	00009097          	auipc	ra,0x9
    c00008ac:	e08080e7          	jalr	-504(ra) # c00096b0 <pvPortMalloc>
    c00008b0:	fca43823          	sd	a0,-48(s0)
    c00008b4:	fd043503          	ld	a0,-48(s0)
    c00008b8:	4581                	li	a1,0
    c00008ba:	02b50e63          	beq	a0,a1,c00008f6 <xQueueGenericCreate+0x98>
    c00008be:	0040006f          	j	c00008c2 <xQueueGenericCreate+0x64>
    c00008c2:	fd043503          	ld	a0,-48(s0)
    c00008c6:	fca43023          	sd	a0,-64(s0)
    c00008ca:	fc043503          	ld	a0,-64(s0)
    c00008ce:	0a050513          	addi	a0,a0,160
    c00008d2:	fca43023          	sd	a0,-64(s0)
    c00008d6:	fe843503          	ld	a0,-24(s0)
    c00008da:	fe043583          	ld	a1,-32(s0)
    c00008de:	fc043603          	ld	a2,-64(s0)
    c00008e2:	fdf44683          	lbu	a3,-33(s0)
    c00008e6:	fd043703          	ld	a4,-48(s0)
    c00008ea:	00000097          	auipc	ra,0x0
    c00008ee:	01c080e7          	jalr	28(ra) # c0000906 <prvInitialiseNewQueue>
    c00008f2:	0080006f          	j	c00008fa <xQueueGenericCreate+0x9c>
    c00008f6:	0040006f          	j	c00008fa <xQueueGenericCreate+0x9c>
    c00008fa:	fd043503          	ld	a0,-48(s0)
    c00008fe:	7442                	ld	s0,48(sp)
    c0000900:	70e2                	ld	ra,56(sp)
    c0000902:	6121                	addi	sp,sp,64
    c0000904:	8082                	ret

00000000c0000906 <prvInitialiseNewQueue>:
    c0000906:	7139                	addi	sp,sp,-64
    c0000908:	fc06                	sd	ra,56(sp)
    c000090a:	f822                	sd	s0,48(sp)
    c000090c:	0080                	addi	s0,sp,64
    c000090e:	87b6                	mv	a5,a3
    c0000910:	fea43423          	sd	a0,-24(s0)
    c0000914:	feb43023          	sd	a1,-32(s0)
    c0000918:	fcc43c23          	sd	a2,-40(s0)
    c000091c:	fcd40ba3          	sb	a3,-41(s0)
    c0000920:	fce43423          	sd	a4,-56(s0)
    c0000924:	fe043503          	ld	a0,-32(s0)
    c0000928:	4581                	li	a1,0
    c000092a:	00b51963          	bne	a0,a1,c000093c <prvInitialiseNewQueue+0x36>
    c000092e:	0040006f          	j	c0000932 <prvInitialiseNewQueue+0x2c>
    c0000932:	fc843503          	ld	a0,-56(s0)
    c0000936:	e108                	sd	a0,0(a0)
    c0000938:	0120006f          	j	c000094a <prvInitialiseNewQueue+0x44>
    c000093c:	fd843503          	ld	a0,-40(s0)
    c0000940:	fc843583          	ld	a1,-56(s0)
    c0000944:	e188                	sd	a0,0(a1)
    c0000946:	0040006f          	j	c000094a <prvInitialiseNewQueue+0x44>
    c000094a:	fe843503          	ld	a0,-24(s0)
    c000094e:	fc843583          	ld	a1,-56(s0)
    c0000952:	fda8                	sd	a0,120(a1)
    c0000954:	fe043503          	ld	a0,-32(s0)
    c0000958:	fc843583          	ld	a1,-56(s0)
    c000095c:	e1c8                	sd	a0,128(a1)
    c000095e:	fc843503          	ld	a0,-56(s0)
    c0000962:	4585                	li	a1,1
    c0000964:	00000097          	auipc	ra,0x0
    c0000968:	df0080e7          	jalr	-528(ra) # c0000754 <xQueueGenericReset>
    c000096c:	fd740583          	lb	a1,-41(s0)
    c0000970:	fc843603          	ld	a2,-56(s0)
    c0000974:	08b60c23          	sb	a1,152(a2)
    c0000978:	7442                	ld	s0,48(sp)
    c000097a:	70e2                	ld	ra,56(sp)
    c000097c:	6121                	addi	sp,sp,64
    c000097e:	8082                	ret

00000000c0000980 <xQueueCreateMutex>:
    c0000980:	7139                	addi	sp,sp,-64
    c0000982:	fc06                	sd	ra,56(sp)
    c0000984:	f822                	sd	s0,48(sp)
    c0000986:	0080                	addi	s0,sp,64
    c0000988:	85aa                	mv	a1,a0
    c000098a:	fea407a3          	sb	a0,-17(s0)
    c000098e:	4505                	li	a0,1
    c0000990:	fca43c23          	sd	a0,-40(s0)
    c0000994:	4601                	li	a2,0
    c0000996:	fcc43823          	sd	a2,-48(s0)
    c000099a:	fef44683          	lbu	a3,-17(s0)
    c000099e:	fcb43423          	sd	a1,-56(s0)
    c00009a2:	85b2                	mv	a1,a2
    c00009a4:	8636                	mv	a2,a3
    c00009a6:	00000097          	auipc	ra,0x0
    c00009aa:	eb8080e7          	jalr	-328(ra) # c000085e <xQueueGenericCreate>
    c00009ae:	fea43023          	sd	a0,-32(s0)
    c00009b2:	fe043503          	ld	a0,-32(s0)
    c00009b6:	00000097          	auipc	ra,0x0
    c00009ba:	014080e7          	jalr	20(ra) # c00009ca <prvInitialiseMutex>
    c00009be:	fe043503          	ld	a0,-32(s0)
    c00009c2:	7442                	ld	s0,48(sp)
    c00009c4:	70e2                	ld	ra,56(sp)
    c00009c6:	6121                	addi	sp,sp,64
    c00009c8:	8082                	ret

00000000c00009ca <prvInitialiseMutex>:
    c00009ca:	1101                	addi	sp,sp,-32
    c00009cc:	ec06                	sd	ra,24(sp)
    c00009ce:	e822                	sd	s0,16(sp)
    c00009d0:	1000                	addi	s0,sp,32
    c00009d2:	fea43423          	sd	a0,-24(s0)
    c00009d6:	fe843503          	ld	a0,-24(s0)
    c00009da:	4581                	li	a1,0
    c00009dc:	02b50c63          	beq	a0,a1,c0000a14 <prvInitialiseMutex+0x4a>
    c00009e0:	0040006f          	j	c00009e4 <prvInitialiseMutex+0x1a>
    c00009e4:	fe843503          	ld	a0,-24(s0)
    c00009e8:	4581                	li	a1,0
    c00009ea:	e90c                	sd	a1,16(a0)
    c00009ec:	fe843503          	ld	a0,-24(s0)
    c00009f0:	e10c                	sd	a1,0(a0)
    c00009f2:	fe843503          	ld	a0,-24(s0)
    c00009f6:	ed0c                	sd	a1,24(a0)
    c00009f8:	fe843503          	ld	a0,-24(s0)
    c00009fc:	feb43023          	sd	a1,-32(s0)
    c0000a00:	fe043603          	ld	a2,-32(s0)
    c0000a04:	fe043683          	ld	a3,-32(s0)
    c0000a08:	00000097          	auipc	ra,0x0
    c0000a0c:	176080e7          	jalr	374(ra) # c0000b7e <xQueueGenericSend>
    c0000a10:	0080006f          	j	c0000a18 <prvInitialiseMutex+0x4e>
    c0000a14:	0040006f          	j	c0000a18 <prvInitialiseMutex+0x4e>
    c0000a18:	6442                	ld	s0,16(sp)
    c0000a1a:	60e2                	ld	ra,24(sp)
    c0000a1c:	6105                	addi	sp,sp,32
    c0000a1e:	8082                	ret

00000000c0000a20 <xQueueGetMutexHolder>:
    c0000a20:	7179                	addi	sp,sp,-48
    c0000a22:	f406                	sd	ra,40(sp)
    c0000a24:	f022                	sd	s0,32(sp)
    c0000a26:	1800                	addi	s0,sp,48
    c0000a28:	fea43423          	sd	a0,-24(s0)
    c0000a2c:	fe843503          	ld	a0,-24(s0)
    c0000a30:	fca43c23          	sd	a0,-40(s0)
    c0000a34:	00002097          	auipc	ra,0x2
    c0000a38:	2ee080e7          	jalr	750(ra) # c0002d22 <vTaskEnterCritical>
    c0000a3c:	fd843503          	ld	a0,-40(s0)
    c0000a40:	6108                	ld	a0,0(a0)
    c0000a42:	4581                	li	a1,0
    c0000a44:	00b51b63          	bne	a0,a1,c0000a5a <xQueueGetMutexHolder+0x3a>
    c0000a48:	0040006f          	j	c0000a4c <xQueueGetMutexHolder+0x2c>
    c0000a4c:	fd843503          	ld	a0,-40(s0)
    c0000a50:	6908                	ld	a0,16(a0)
    c0000a52:	fea43023          	sd	a0,-32(s0)
    c0000a56:	00e0006f          	j	c0000a64 <xQueueGetMutexHolder+0x44>
    c0000a5a:	4501                	li	a0,0
    c0000a5c:	fea43023          	sd	a0,-32(s0)
    c0000a60:	0040006f          	j	c0000a64 <xQueueGetMutexHolder+0x44>
    c0000a64:	00002097          	auipc	ra,0x2
    c0000a68:	39a080e7          	jalr	922(ra) # c0002dfe <vTaskExitCritical>
    c0000a6c:	fe043503          	ld	a0,-32(s0)
    c0000a70:	7402                	ld	s0,32(sp)
    c0000a72:	70a2                	ld	ra,40(sp)
    c0000a74:	6145                	addi	sp,sp,48
    c0000a76:	8082                	ret

00000000c0000a78 <xQueueGetMutexHolderFromISR>:
    c0000a78:	1101                	addi	sp,sp,-32
    c0000a7a:	ec06                	sd	ra,24(sp)
    c0000a7c:	e822                	sd	s0,16(sp)
    c0000a7e:	1000                	addi	s0,sp,32
    c0000a80:	fea43423          	sd	a0,-24(s0)
    c0000a84:	fe843503          	ld	a0,-24(s0)
    c0000a88:	4581                	li	a1,0
    c0000a8a:	00b51b63          	bne	a0,a1,c0000aa0 <xQueueGetMutexHolderFromISR+0x28>
    c0000a8e:	0040006f          	j	c0000a92 <xQueueGetMutexHolderFromISR+0x1a>
    c0000a92:	30047073          	csrci	mstatus,8
    c0000a96:	9002                	ebreak
    c0000a98:	0040006f          	j	c0000a9c <xQueueGetMutexHolderFromISR+0x24>
    c0000a9c:	0000006f          	j	c0000a9c <xQueueGetMutexHolderFromISR+0x24>
    c0000aa0:	fe843503          	ld	a0,-24(s0)
    c0000aa4:	6108                	ld	a0,0(a0)
    c0000aa6:	4581                	li	a1,0
    c0000aa8:	00b51b63          	bne	a0,a1,c0000abe <xQueueGetMutexHolderFromISR+0x46>
    c0000aac:	0040006f          	j	c0000ab0 <xQueueGetMutexHolderFromISR+0x38>
    c0000ab0:	fe843503          	ld	a0,-24(s0)
    c0000ab4:	6908                	ld	a0,16(a0)
    c0000ab6:	fea43023          	sd	a0,-32(s0)
    c0000aba:	00e0006f          	j	c0000ac8 <xQueueGetMutexHolderFromISR+0x50>
    c0000abe:	4501                	li	a0,0
    c0000ac0:	fea43023          	sd	a0,-32(s0)
    c0000ac4:	0040006f          	j	c0000ac8 <xQueueGetMutexHolderFromISR+0x50>
    c0000ac8:	fe043503          	ld	a0,-32(s0)
    c0000acc:	6442                	ld	s0,16(sp)
    c0000ace:	60e2                	ld	ra,24(sp)
    c0000ad0:	6105                	addi	sp,sp,32
    c0000ad2:	8082                	ret

00000000c0000ad4 <xQueueGiveMutexRecursive>:
    c0000ad4:	7139                	addi	sp,sp,-64
    c0000ad6:	fc06                	sd	ra,56(sp)
    c0000ad8:	f822                	sd	s0,48(sp)
    c0000ada:	0080                	addi	s0,sp,64
    c0000adc:	fea43423          	sd	a0,-24(s0)
    c0000ae0:	fe843503          	ld	a0,-24(s0)
    c0000ae4:	fca43c23          	sd	a0,-40(s0)
    c0000ae8:	fd843503          	ld	a0,-40(s0)
    c0000aec:	4581                	li	a1,0
    c0000aee:	00b51b63          	bne	a0,a1,c0000b04 <xQueueGiveMutexRecursive+0x30>
    c0000af2:	0040006f          	j	c0000af6 <xQueueGiveMutexRecursive+0x22>
    c0000af6:	30047073          	csrci	mstatus,8
    c0000afa:	9002                	ebreak
    c0000afc:	0040006f          	j	c0000b00 <xQueueGiveMutexRecursive+0x2c>
    c0000b00:	0000006f          	j	c0000b00 <xQueueGiveMutexRecursive+0x2c>
    c0000b04:	fd843503          	ld	a0,-40(s0)
    c0000b08:	6908                	ld	a0,16(a0)
    c0000b0a:	fca43823          	sd	a0,-48(s0)
    c0000b0e:	00005097          	auipc	ra,0x5
    c0000b12:	a18080e7          	jalr	-1512(ra) # c0005526 <xTaskGetCurrentTaskHandle>
    c0000b16:	fd043583          	ld	a1,-48(s0)
    c0000b1a:	04a59763          	bne	a1,a0,c0000b68 <xQueueGiveMutexRecursive+0x94>
    c0000b1e:	0040006f          	j	c0000b22 <xQueueGiveMutexRecursive+0x4e>
    c0000b22:	fd843503          	ld	a0,-40(s0)
    c0000b26:	6d0c                	ld	a1,24(a0)
    c0000b28:	15fd                	addi	a1,a1,-1
    c0000b2a:	ed0c                	sd	a1,24(a0)
    c0000b2c:	fd843503          	ld	a0,-40(s0)
    c0000b30:	6d08                	ld	a0,24(a0)
    c0000b32:	4581                	li	a1,0
    c0000b34:	02b51363          	bne	a0,a1,c0000b5a <xQueueGiveMutexRecursive+0x86>
    c0000b38:	0040006f          	j	c0000b3c <xQueueGiveMutexRecursive+0x68>
    c0000b3c:	fd843503          	ld	a0,-40(s0)
    c0000b40:	4581                	li	a1,0
    c0000b42:	fcb43423          	sd	a1,-56(s0)
    c0000b46:	fc843603          	ld	a2,-56(s0)
    c0000b4a:	fc843683          	ld	a3,-56(s0)
    c0000b4e:	00000097          	auipc	ra,0x0
    c0000b52:	030080e7          	jalr	48(ra) # c0000b7e <xQueueGenericSend>
    c0000b56:	0080006f          	j	c0000b5e <xQueueGiveMutexRecursive+0x8a>
    c0000b5a:	0040006f          	j	c0000b5e <xQueueGiveMutexRecursive+0x8a>
    c0000b5e:	4505                	li	a0,1
    c0000b60:	fea43023          	sd	a0,-32(s0)
    c0000b64:	00e0006f          	j	c0000b72 <xQueueGiveMutexRecursive+0x9e>
    c0000b68:	4501                	li	a0,0
    c0000b6a:	fea43023          	sd	a0,-32(s0)
    c0000b6e:	0040006f          	j	c0000b72 <xQueueGiveMutexRecursive+0x9e>
    c0000b72:	fe043503          	ld	a0,-32(s0)
    c0000b76:	7442                	ld	s0,48(sp)
    c0000b78:	70e2                	ld	ra,56(sp)
    c0000b7a:	6121                	addi	sp,sp,64
    c0000b7c:	8082                	ret

00000000c0000b7e <xQueueGenericSend>:
    c0000b7e:	7119                	addi	sp,sp,-128
    c0000b80:	fc86                	sd	ra,120(sp)
    c0000b82:	f8a2                	sd	s0,112(sp)
    c0000b84:	0100                	addi	s0,sp,128
    c0000b86:	fea43023          	sd	a0,-32(s0)
    c0000b8a:	fcb43c23          	sd	a1,-40(s0)
    c0000b8e:	fcc43823          	sd	a2,-48(s0)
    c0000b92:	fcd43423          	sd	a3,-56(s0)
    c0000b96:	4501                	li	a0,0
    c0000b98:	fca43023          	sd	a0,-64(s0)
    c0000b9c:	fe043583          	ld	a1,-32(s0)
    c0000ba0:	fab43023          	sd	a1,-96(s0)
    c0000ba4:	fa043583          	ld	a1,-96(s0)
    c0000ba8:	00a59b63          	bne	a1,a0,c0000bbe <xQueueGenericSend+0x40>
    c0000bac:	0040006f          	j	c0000bb0 <xQueueGenericSend+0x32>
    c0000bb0:	30047073          	csrci	mstatus,8
    c0000bb4:	9002                	ebreak
    c0000bb6:	0040006f          	j	c0000bba <xQueueGenericSend+0x3c>
    c0000bba:	0000006f          	j	c0000bba <xQueueGenericSend+0x3c>
    c0000bbe:	fd843503          	ld	a0,-40(s0)
    c0000bc2:	4581                	li	a1,0
    c0000bc4:	862e                	mv	a2,a1
    c0000bc6:	f8c43c23          	sd	a2,-104(s0)
    c0000bca:	00b51d63          	bne	a0,a1,c0000be4 <xQueueGenericSend+0x66>
    c0000bce:	0040006f          	j	c0000bd2 <xQueueGenericSend+0x54>
    c0000bd2:	fa043503          	ld	a0,-96(s0)
    c0000bd6:	6148                	ld	a0,128(a0)
    c0000bd8:	00a03533          	snez	a0,a0
    c0000bdc:	f8a43c23          	sd	a0,-104(s0)
    c0000be0:	0040006f          	j	c0000be4 <xQueueGenericSend+0x66>
    c0000be4:	f9843503          	ld	a0,-104(s0)
    c0000be8:	8905                	andi	a0,a0,1
    c0000bea:	4581                	li	a1,0
    c0000bec:	00b50b63          	beq	a0,a1,c0000c02 <xQueueGenericSend+0x84>
    c0000bf0:	0040006f          	j	c0000bf4 <xQueueGenericSend+0x76>
    c0000bf4:	30047073          	csrci	mstatus,8
    c0000bf8:	9002                	ebreak
    c0000bfa:	0040006f          	j	c0000bfe <xQueueGenericSend+0x80>
    c0000bfe:	0000006f          	j	c0000bfe <xQueueGenericSend+0x80>
    c0000c02:	fc843503          	ld	a0,-56(s0)
    c0000c06:	4581                	li	a1,0
    c0000c08:	4609                	li	a2,2
    c0000c0a:	f8b43823          	sd	a1,-112(s0)
    c0000c0e:	00c51e63          	bne	a0,a2,c0000c2a <xQueueGenericSend+0xac>
    c0000c12:	0040006f          	j	c0000c16 <xQueueGenericSend+0x98>
    c0000c16:	fa043503          	ld	a0,-96(s0)
    c0000c1a:	7d28                	ld	a0,120(a0)
    c0000c1c:	157d                	addi	a0,a0,-1
    c0000c1e:	00a03533          	snez	a0,a0
    c0000c22:	f8a43823          	sd	a0,-112(s0)
    c0000c26:	0040006f          	j	c0000c2a <xQueueGenericSend+0xac>
    c0000c2a:	f9043503          	ld	a0,-112(s0)
    c0000c2e:	8905                	andi	a0,a0,1
    c0000c30:	4581                	li	a1,0
    c0000c32:	00b50b63          	beq	a0,a1,c0000c48 <xQueueGenericSend+0xca>
    c0000c36:	0040006f          	j	c0000c3a <xQueueGenericSend+0xbc>
    c0000c3a:	30047073          	csrci	mstatus,8
    c0000c3e:	9002                	ebreak
    c0000c40:	0040006f          	j	c0000c44 <xQueueGenericSend+0xc6>
    c0000c44:	0000006f          	j	c0000c44 <xQueueGenericSend+0xc6>
    c0000c48:	00005097          	auipc	ra,0x5
    c0000c4c:	900080e7          	jalr	-1792(ra) # c0005548 <xTaskGetSchedulerState>
    c0000c50:	4581                	li	a1,0
    c0000c52:	862e                	mv	a2,a1
    c0000c54:	f8c43423          	sd	a2,-120(s0)
    c0000c58:	00b51c63          	bne	a0,a1,c0000c70 <xQueueGenericSend+0xf2>
    c0000c5c:	0040006f          	j	c0000c60 <xQueueGenericSend+0xe2>
    c0000c60:	fd043503          	ld	a0,-48(s0)
    c0000c64:	00a03533          	snez	a0,a0
    c0000c68:	f8a43423          	sd	a0,-120(s0)
    c0000c6c:	0040006f          	j	c0000c70 <xQueueGenericSend+0xf2>
    c0000c70:	f8843503          	ld	a0,-120(s0)
    c0000c74:	8905                	andi	a0,a0,1
    c0000c76:	4581                	li	a1,0
    c0000c78:	00b50b63          	beq	a0,a1,c0000c8e <xQueueGenericSend+0x110>
    c0000c7c:	0040006f          	j	c0000c80 <xQueueGenericSend+0x102>
    c0000c80:	30047073          	csrci	mstatus,8
    c0000c84:	9002                	ebreak
    c0000c86:	0040006f          	j	c0000c8a <xQueueGenericSend+0x10c>
    c0000c8a:	0000006f          	j	c0000c8a <xQueueGenericSend+0x10c>
    c0000c8e:	0040006f          	j	c0000c92 <xQueueGenericSend+0x114>
    c0000c92:	00002097          	auipc	ra,0x2
    c0000c96:	090080e7          	jalr	144(ra) # c0002d22 <vTaskEnterCritical>
    c0000c9a:	fa043503          	ld	a0,-96(s0)
    c0000c9e:	7928                	ld	a0,112(a0)
    c0000ca0:	fa043583          	ld	a1,-96(s0)
    c0000ca4:	7dac                	ld	a1,120(a1)
    c0000ca6:	00b56b63          	bltu	a0,a1,c0000cbc <xQueueGenericSend+0x13e>
    c0000caa:	0040006f          	j	c0000cae <xQueueGenericSend+0x130>
    c0000cae:	fc843503          	ld	a0,-56(s0)
    c0000cb2:	4589                	li	a1,2
    c0000cb4:	08b51563          	bne	a0,a1,c0000d3e <xQueueGenericSend+0x1c0>
    c0000cb8:	0040006f          	j	c0000cbc <xQueueGenericSend+0x13e>
    c0000cbc:	fa043503          	ld	a0,-96(s0)
    c0000cc0:	fd843583          	ld	a1,-40(s0)
    c0000cc4:	fc843603          	ld	a2,-56(s0)
    c0000cc8:	00000097          	auipc	ra,0x0
    c0000ccc:	688080e7          	jalr	1672(ra) # c0001350 <prvCopyDataToQueue>
    c0000cd0:	faa43c23          	sd	a0,-72(s0)
    c0000cd4:	fa043503          	ld	a0,-96(s0)
    c0000cd8:	6528                	ld	a0,72(a0)
    c0000cda:	4581                	li	a1,0
    c0000cdc:	02b50963          	beq	a0,a1,c0000d0e <xQueueGenericSend+0x190>
    c0000ce0:	0040006f          	j	c0000ce4 <xQueueGenericSend+0x166>
    c0000ce4:	fa043503          	ld	a0,-96(s0)
    c0000ce8:	04850513          	addi	a0,a0,72
    c0000cec:	00004097          	auipc	ra,0x4
    c0000cf0:	172080e7          	jalr	370(ra) # c0004e5e <xTaskRemoveFromEventList>
    c0000cf4:	4581                	li	a1,0
    c0000cf6:	00b50863          	beq	a0,a1,c0000d06 <xQueueGenericSend+0x188>
    c0000cfa:	0040006f          	j	c0000cfe <xQueueGenericSend+0x180>
    c0000cfe:	00000073          	ecall
    c0000d02:	0080006f          	j	c0000d0a <xQueueGenericSend+0x18c>
    c0000d06:	0040006f          	j	c0000d0a <xQueueGenericSend+0x18c>
    c0000d0a:	0220006f          	j	c0000d2c <xQueueGenericSend+0x1ae>
    c0000d0e:	fb843503          	ld	a0,-72(s0)
    c0000d12:	4581                	li	a1,0
    c0000d14:	00b50863          	beq	a0,a1,c0000d24 <xQueueGenericSend+0x1a6>
    c0000d18:	0040006f          	j	c0000d1c <xQueueGenericSend+0x19e>
    c0000d1c:	00000073          	ecall
    c0000d20:	0080006f          	j	c0000d28 <xQueueGenericSend+0x1aa>
    c0000d24:	0040006f          	j	c0000d28 <xQueueGenericSend+0x1aa>
    c0000d28:	0040006f          	j	c0000d2c <xQueueGenericSend+0x1ae>
    c0000d2c:	00002097          	auipc	ra,0x2
    c0000d30:	0d2080e7          	jalr	210(ra) # c0002dfe <vTaskExitCritical>
    c0000d34:	4505                	li	a0,1
    c0000d36:	fea43423          	sd	a0,-24(s0)
    c0000d3a:	1600006f          	j	c0000e9a <xQueueGenericSend+0x31c>
    c0000d3e:	fd043503          	ld	a0,-48(s0)
    c0000d42:	4581                	li	a1,0
    c0000d44:	00b51d63          	bne	a0,a1,c0000d5e <xQueueGenericSend+0x1e0>
    c0000d48:	0040006f          	j	c0000d4c <xQueueGenericSend+0x1ce>
    c0000d4c:	00002097          	auipc	ra,0x2
    c0000d50:	0b2080e7          	jalr	178(ra) # c0002dfe <vTaskExitCritical>
    c0000d54:	4501                	li	a0,0
    c0000d56:	fea43423          	sd	a0,-24(s0)
    c0000d5a:	1400006f          	j	c0000e9a <xQueueGenericSend+0x31c>
    c0000d5e:	fc043503          	ld	a0,-64(s0)
    c0000d62:	4581                	li	a1,0
    c0000d64:	00b51f63          	bne	a0,a1,c0000d82 <xQueueGenericSend+0x204>
    c0000d68:	0040006f          	j	c0000d6c <xQueueGenericSend+0x1ee>
    c0000d6c:	fa840513          	addi	a0,s0,-88
    c0000d70:	00004097          	auipc	ra,0x4
    c0000d74:	356080e7          	jalr	854(ra) # c00050c6 <vTaskInternalSetTimeOutState>
    c0000d78:	4505                	li	a0,1
    c0000d7a:	fca43023          	sd	a0,-64(s0)
    c0000d7e:	0080006f          	j	c0000d86 <xQueueGenericSend+0x208>
    c0000d82:	0040006f          	j	c0000d86 <xQueueGenericSend+0x208>
    c0000d86:	0040006f          	j	c0000d8a <xQueueGenericSend+0x20c>
    c0000d8a:	0040006f          	j	c0000d8e <xQueueGenericSend+0x210>
    c0000d8e:	00002097          	auipc	ra,0x2
    c0000d92:	070080e7          	jalr	112(ra) # c0002dfe <vTaskExitCritical>
    c0000d96:	00002097          	auipc	ra,0x2
    c0000d9a:	24c080e7          	jalr	588(ra) # c0002fe2 <vTaskSuspendAll>
    c0000d9e:	00002097          	auipc	ra,0x2
    c0000da2:	f84080e7          	jalr	-124(ra) # c0002d22 <vTaskEnterCritical>
    c0000da6:	fa043503          	ld	a0,-96(s0)
    c0000daa:	08850503          	lb	a0,136(a0)
    c0000dae:	55fd                	li	a1,-1
    c0000db0:	00b51b63          	bne	a0,a1,c0000dc6 <xQueueGenericSend+0x248>
    c0000db4:	0040006f          	j	c0000db8 <xQueueGenericSend+0x23a>
    c0000db8:	fa043503          	ld	a0,-96(s0)
    c0000dbc:	4581                	li	a1,0
    c0000dbe:	08b50423          	sb	a1,136(a0)
    c0000dc2:	0040006f          	j	c0000dc6 <xQueueGenericSend+0x248>
    c0000dc6:	fa043503          	ld	a0,-96(s0)
    c0000dca:	08950503          	lb	a0,137(a0)
    c0000dce:	55fd                	li	a1,-1
    c0000dd0:	00b51b63          	bne	a0,a1,c0000de6 <xQueueGenericSend+0x268>
    c0000dd4:	0040006f          	j	c0000dd8 <xQueueGenericSend+0x25a>
    c0000dd8:	fa043503          	ld	a0,-96(s0)
    c0000ddc:	4581                	li	a1,0
    c0000dde:	08b504a3          	sb	a1,137(a0)
    c0000de2:	0040006f          	j	c0000de6 <xQueueGenericSend+0x268>
    c0000de6:	00002097          	auipc	ra,0x2
    c0000dea:	018080e7          	jalr	24(ra) # c0002dfe <vTaskExitCritical>
    c0000dee:	fa840513          	addi	a0,s0,-88
    c0000df2:	fd040593          	addi	a1,s0,-48
    c0000df6:	00004097          	auipc	ra,0x4
    c0000dfa:	304080e7          	jalr	772(ra) # c00050fa <xTaskCheckForTimeOut>
    c0000dfe:	4581                	li	a1,0
    c0000e00:	06b51c63          	bne	a0,a1,c0000e78 <xQueueGenericSend+0x2fa>
    c0000e04:	0040006f          	j	c0000e08 <xQueueGenericSend+0x28a>
    c0000e08:	fa043503          	ld	a0,-96(s0)
    c0000e0c:	00000097          	auipc	ra,0x0
    c0000e10:	6b2080e7          	jalr	1714(ra) # c00014be <prvIsQueueFull>
    c0000e14:	4581                	li	a1,0
    c0000e16:	04b50363          	beq	a0,a1,c0000e5c <xQueueGenericSend+0x2de>
    c0000e1a:	0040006f          	j	c0000e1e <xQueueGenericSend+0x2a0>
    c0000e1e:	fa043503          	ld	a0,-96(s0)
    c0000e22:	02050513          	addi	a0,a0,32
    c0000e26:	fd043583          	ld	a1,-48(s0)
    c0000e2a:	00004097          	auipc	ra,0x4
    c0000e2e:	ec4080e7          	jalr	-316(ra) # c0004cee <vTaskPlaceOnEventList>
    c0000e32:	fa043503          	ld	a0,-96(s0)
    c0000e36:	00000097          	auipc	ra,0x0
    c0000e3a:	6d8080e7          	jalr	1752(ra) # c000150e <prvUnlockQueue>
    c0000e3e:	00002097          	auipc	ra,0x2
    c0000e42:	320080e7          	jalr	800(ra) # c000315e <xTaskResumeAll>
    c0000e46:	4581                	li	a1,0
    c0000e48:	00b51863          	bne	a0,a1,c0000e58 <xQueueGenericSend+0x2da>
    c0000e4c:	0040006f          	j	c0000e50 <xQueueGenericSend+0x2d2>
    c0000e50:	00000073          	ecall
    c0000e54:	0040006f          	j	c0000e58 <xQueueGenericSend+0x2da>
    c0000e58:	01c0006f          	j	c0000e74 <xQueueGenericSend+0x2f6>
    c0000e5c:	fa043503          	ld	a0,-96(s0)
    c0000e60:	00000097          	auipc	ra,0x0
    c0000e64:	6ae080e7          	jalr	1710(ra) # c000150e <prvUnlockQueue>
    c0000e68:	00002097          	auipc	ra,0x2
    c0000e6c:	2f6080e7          	jalr	758(ra) # c000315e <xTaskResumeAll>
    c0000e70:	0040006f          	j	c0000e74 <xQueueGenericSend+0x2f6>
    c0000e74:	0220006f          	j	c0000e96 <xQueueGenericSend+0x318>
    c0000e78:	fa043503          	ld	a0,-96(s0)
    c0000e7c:	00000097          	auipc	ra,0x0
    c0000e80:	692080e7          	jalr	1682(ra) # c000150e <prvUnlockQueue>
    c0000e84:	00002097          	auipc	ra,0x2
    c0000e88:	2da080e7          	jalr	730(ra) # c000315e <xTaskResumeAll>
    c0000e8c:	4581                	li	a1,0
    c0000e8e:	feb43423          	sd	a1,-24(s0)
    c0000e92:	0080006f          	j	c0000e9a <xQueueGenericSend+0x31c>
    c0000e96:	dfdff06f          	j	c0000c92 <xQueueGenericSend+0x114>
    c0000e9a:	fe843503          	ld	a0,-24(s0)
    c0000e9e:	7446                	ld	s0,112(sp)
    c0000ea0:	70e6                	ld	ra,120(sp)
    c0000ea2:	6109                	addi	sp,sp,128
    c0000ea4:	8082                	ret

00000000c0000ea6 <xQueueTakeMutexRecursive>:
    c0000ea6:	7139                	addi	sp,sp,-64
    c0000ea8:	fc06                	sd	ra,56(sp)
    c0000eaa:	f822                	sd	s0,48(sp)
    c0000eac:	0080                	addi	s0,sp,64
    c0000eae:	fea43423          	sd	a0,-24(s0)
    c0000eb2:	feb43023          	sd	a1,-32(s0)
    c0000eb6:	fe843503          	ld	a0,-24(s0)
    c0000eba:	fca43823          	sd	a0,-48(s0)
    c0000ebe:	fd043503          	ld	a0,-48(s0)
    c0000ec2:	4581                	li	a1,0
    c0000ec4:	00b51b63          	bne	a0,a1,c0000eda <xQueueTakeMutexRecursive+0x34>
    c0000ec8:	0040006f          	j	c0000ecc <xQueueTakeMutexRecursive+0x26>
    c0000ecc:	30047073          	csrci	mstatus,8
    c0000ed0:	9002                	ebreak
    c0000ed2:	0040006f          	j	c0000ed6 <xQueueTakeMutexRecursive+0x30>
    c0000ed6:	0000006f          	j	c0000ed6 <xQueueTakeMutexRecursive+0x30>
    c0000eda:	fd043503          	ld	a0,-48(s0)
    c0000ede:	6908                	ld	a0,16(a0)
    c0000ee0:	fca43423          	sd	a0,-56(s0)
    c0000ee4:	00004097          	auipc	ra,0x4
    c0000ee8:	642080e7          	jalr	1602(ra) # c0005526 <xTaskGetCurrentTaskHandle>
    c0000eec:	fc843583          	ld	a1,-56(s0)
    c0000ef0:	00a59e63          	bne	a1,a0,c0000f0c <xQueueTakeMutexRecursive+0x66>
    c0000ef4:	0040006f          	j	c0000ef8 <xQueueTakeMutexRecursive+0x52>
    c0000ef8:	fd043503          	ld	a0,-48(s0)
    c0000efc:	6d0c                	ld	a1,24(a0)
    c0000efe:	0585                	addi	a1,a1,1
    c0000f00:	ed0c                	sd	a1,24(a0)
    c0000f02:	4505                	li	a0,1
    c0000f04:	fca43c23          	sd	a0,-40(s0)
    c0000f08:	03c0006f          	j	c0000f44 <xQueueTakeMutexRecursive+0x9e>
    c0000f0c:	fd043503          	ld	a0,-48(s0)
    c0000f10:	fe043583          	ld	a1,-32(s0)
    c0000f14:	00000097          	auipc	ra,0x0
    c0000f18:	03c080e7          	jalr	60(ra) # c0000f50 <xQueueSemaphoreTake>
    c0000f1c:	fca43c23          	sd	a0,-40(s0)
    c0000f20:	fd843503          	ld	a0,-40(s0)
    c0000f24:	4581                	li	a1,0
    c0000f26:	00b50b63          	beq	a0,a1,c0000f3c <xQueueTakeMutexRecursive+0x96>
    c0000f2a:	0040006f          	j	c0000f2e <xQueueTakeMutexRecursive+0x88>
    c0000f2e:	fd043503          	ld	a0,-48(s0)
    c0000f32:	6d0c                	ld	a1,24(a0)
    c0000f34:	0585                	addi	a1,a1,1
    c0000f36:	ed0c                	sd	a1,24(a0)
    c0000f38:	0080006f          	j	c0000f40 <xQueueTakeMutexRecursive+0x9a>
    c0000f3c:	0040006f          	j	c0000f40 <xQueueTakeMutexRecursive+0x9a>
    c0000f40:	0040006f          	j	c0000f44 <xQueueTakeMutexRecursive+0x9e>
    c0000f44:	fd843503          	ld	a0,-40(s0)
    c0000f48:	7442                	ld	s0,48(sp)
    c0000f4a:	70e2                	ld	ra,56(sp)
    c0000f4c:	6121                	addi	sp,sp,64
    c0000f4e:	8082                	ret

00000000c0000f50 <xQueueSemaphoreTake>:
    c0000f50:	7159                	addi	sp,sp,-112
    c0000f52:	f486                	sd	ra,104(sp)
    c0000f54:	f0a2                	sd	s0,96(sp)
    c0000f56:	1880                	addi	s0,sp,112
    c0000f58:	fea43023          	sd	a0,-32(s0)
    c0000f5c:	fcb43c23          	sd	a1,-40(s0)
    c0000f60:	4501                	li	a0,0
    c0000f62:	fca43823          	sd	a0,-48(s0)
    c0000f66:	fe043583          	ld	a1,-32(s0)
    c0000f6a:	fab43c23          	sd	a1,-72(s0)
    c0000f6e:	faa43823          	sd	a0,-80(s0)
    c0000f72:	fb843583          	ld	a1,-72(s0)
    c0000f76:	00a59b63          	bne	a1,a0,c0000f8c <xQueueSemaphoreTake+0x3c>
    c0000f7a:	0040006f          	j	c0000f7e <xQueueSemaphoreTake+0x2e>
    c0000f7e:	30047073          	csrci	mstatus,8
    c0000f82:	9002                	ebreak
    c0000f84:	0040006f          	j	c0000f88 <xQueueSemaphoreTake+0x38>
    c0000f88:	0000006f          	j	c0000f88 <xQueueSemaphoreTake+0x38>
    c0000f8c:	fb843503          	ld	a0,-72(s0)
    c0000f90:	6148                	ld	a0,128(a0)
    c0000f92:	4581                	li	a1,0
    c0000f94:	00b50b63          	beq	a0,a1,c0000faa <xQueueSemaphoreTake+0x5a>
    c0000f98:	0040006f          	j	c0000f9c <xQueueSemaphoreTake+0x4c>
    c0000f9c:	30047073          	csrci	mstatus,8
    c0000fa0:	9002                	ebreak
    c0000fa2:	0040006f          	j	c0000fa6 <xQueueSemaphoreTake+0x56>
    c0000fa6:	0000006f          	j	c0000fa6 <xQueueSemaphoreTake+0x56>
    c0000faa:	00004097          	auipc	ra,0x4
    c0000fae:	59e080e7          	jalr	1438(ra) # c0005548 <xTaskGetSchedulerState>
    c0000fb2:	4581                	li	a1,0
    c0000fb4:	862e                	mv	a2,a1
    c0000fb6:	f8c43c23          	sd	a2,-104(s0)
    c0000fba:	00b51c63          	bne	a0,a1,c0000fd2 <xQueueSemaphoreTake+0x82>
    c0000fbe:	0040006f          	j	c0000fc2 <xQueueSemaphoreTake+0x72>
    c0000fc2:	fd843503          	ld	a0,-40(s0)
    c0000fc6:	00a03533          	snez	a0,a0
    c0000fca:	f8a43c23          	sd	a0,-104(s0)
    c0000fce:	0040006f          	j	c0000fd2 <xQueueSemaphoreTake+0x82>
    c0000fd2:	f9843503          	ld	a0,-104(s0)
    c0000fd6:	8905                	andi	a0,a0,1
    c0000fd8:	4581                	li	a1,0
    c0000fda:	00b50b63          	beq	a0,a1,c0000ff0 <xQueueSemaphoreTake+0xa0>
    c0000fde:	0040006f          	j	c0000fe2 <xQueueSemaphoreTake+0x92>
    c0000fe2:	30047073          	csrci	mstatus,8
    c0000fe6:	9002                	ebreak
    c0000fe8:	0040006f          	j	c0000fec <xQueueSemaphoreTake+0x9c>
    c0000fec:	0000006f          	j	c0000fec <xQueueSemaphoreTake+0x9c>
    c0000ff0:	0040006f          	j	c0000ff4 <xQueueSemaphoreTake+0xa4>
    c0000ff4:	00002097          	auipc	ra,0x2
    c0000ff8:	d2e080e7          	jalr	-722(ra) # c0002d22 <vTaskEnterCritical>
    c0000ffc:	fb843503          	ld	a0,-72(s0)
    c0001000:	7928                	ld	a0,112(a0)
    c0001002:	faa43423          	sd	a0,-88(s0)
    c0001006:	fa843503          	ld	a0,-88(s0)
    c000100a:	4581                	li	a1,0
    c000100c:	08b50563          	beq	a0,a1,c0001096 <xQueueSemaphoreTake+0x146>
    c0001010:	0040006f          	j	c0001014 <xQueueSemaphoreTake+0xc4>
    c0001014:	fa843503          	ld	a0,-88(s0)
    c0001018:	157d                	addi	a0,a0,-1
    c000101a:	fb843583          	ld	a1,-72(s0)
    c000101e:	f9a8                	sd	a0,112(a1)
    c0001020:	fb843503          	ld	a0,-72(s0)
    c0001024:	6108                	ld	a0,0(a0)
    c0001026:	4581                	li	a1,0
    c0001028:	00b51d63          	bne	a0,a1,c0001042 <xQueueSemaphoreTake+0xf2>
    c000102c:	0040006f          	j	c0001030 <xQueueSemaphoreTake+0xe0>
    c0001030:	00005097          	auipc	ra,0x5
    c0001034:	ec6080e7          	jalr	-314(ra) # c0005ef6 <pvTaskIncrementMutexHeldCount>
    c0001038:	fb843583          	ld	a1,-72(s0)
    c000103c:	e988                	sd	a0,16(a1)
    c000103e:	0080006f          	j	c0001046 <xQueueSemaphoreTake+0xf6>
    c0001042:	0040006f          	j	c0001046 <xQueueSemaphoreTake+0xf6>
    c0001046:	fb843503          	ld	a0,-72(s0)
    c000104a:	7108                	ld	a0,32(a0)
    c000104c:	4581                	li	a1,0
    c000104e:	02b50963          	beq	a0,a1,c0001080 <xQueueSemaphoreTake+0x130>
    c0001052:	0040006f          	j	c0001056 <xQueueSemaphoreTake+0x106>
    c0001056:	fb843503          	ld	a0,-72(s0)
    c000105a:	02050513          	addi	a0,a0,32
    c000105e:	00004097          	auipc	ra,0x4
    c0001062:	e00080e7          	jalr	-512(ra) # c0004e5e <xTaskRemoveFromEventList>
    c0001066:	4581                	li	a1,0
    c0001068:	00b50863          	beq	a0,a1,c0001078 <xQueueSemaphoreTake+0x128>
    c000106c:	0040006f          	j	c0001070 <xQueueSemaphoreTake+0x120>
    c0001070:	00000073          	ecall
    c0001074:	0080006f          	j	c000107c <xQueueSemaphoreTake+0x12c>
    c0001078:	0040006f          	j	c000107c <xQueueSemaphoreTake+0x12c>
    c000107c:	0080006f          	j	c0001084 <xQueueSemaphoreTake+0x134>
    c0001080:	0040006f          	j	c0001084 <xQueueSemaphoreTake+0x134>
    c0001084:	00002097          	auipc	ra,0x2
    c0001088:	d7a080e7          	jalr	-646(ra) # c0002dfe <vTaskExitCritical>
    c000108c:	4505                	li	a0,1
    c000108e:	fea43423          	sd	a0,-24(s0)
    c0001092:	2220006f          	j	c00012b4 <xQueueSemaphoreTake+0x364>
    c0001096:	fd843503          	ld	a0,-40(s0)
    c000109a:	4581                	li	a1,0
    c000109c:	02b51b63          	bne	a0,a1,c00010d2 <xQueueSemaphoreTake+0x182>
    c00010a0:	0040006f          	j	c00010a4 <xQueueSemaphoreTake+0x154>
    c00010a4:	fb043503          	ld	a0,-80(s0)
    c00010a8:	4581                	li	a1,0
    c00010aa:	00b50b63          	beq	a0,a1,c00010c0 <xQueueSemaphoreTake+0x170>
    c00010ae:	0040006f          	j	c00010b2 <xQueueSemaphoreTake+0x162>
    c00010b2:	30047073          	csrci	mstatus,8
    c00010b6:	9002                	ebreak
    c00010b8:	0040006f          	j	c00010bc <xQueueSemaphoreTake+0x16c>
    c00010bc:	0000006f          	j	c00010bc <xQueueSemaphoreTake+0x16c>
    c00010c0:	00002097          	auipc	ra,0x2
    c00010c4:	d3e080e7          	jalr	-706(ra) # c0002dfe <vTaskExitCritical>
    c00010c8:	4501                	li	a0,0
    c00010ca:	fea43423          	sd	a0,-24(s0)
    c00010ce:	1e60006f          	j	c00012b4 <xQueueSemaphoreTake+0x364>
    c00010d2:	fd043503          	ld	a0,-48(s0)
    c00010d6:	4581                	li	a1,0
    c00010d8:	00b51f63          	bne	a0,a1,c00010f6 <xQueueSemaphoreTake+0x1a6>
    c00010dc:	0040006f          	j	c00010e0 <xQueueSemaphoreTake+0x190>
    c00010e0:	fc040513          	addi	a0,s0,-64
    c00010e4:	00004097          	auipc	ra,0x4
    c00010e8:	fe2080e7          	jalr	-30(ra) # c00050c6 <vTaskInternalSetTimeOutState>
    c00010ec:	4505                	li	a0,1
    c00010ee:	fca43823          	sd	a0,-48(s0)
    c00010f2:	0080006f          	j	c00010fa <xQueueSemaphoreTake+0x1aa>
    c00010f6:	0040006f          	j	c00010fa <xQueueSemaphoreTake+0x1aa>
    c00010fa:	0040006f          	j	c00010fe <xQueueSemaphoreTake+0x1ae>
    c00010fe:	0040006f          	j	c0001102 <xQueueSemaphoreTake+0x1b2>
    c0001102:	00002097          	auipc	ra,0x2
    c0001106:	cfc080e7          	jalr	-772(ra) # c0002dfe <vTaskExitCritical>
    c000110a:	00002097          	auipc	ra,0x2
    c000110e:	ed8080e7          	jalr	-296(ra) # c0002fe2 <vTaskSuspendAll>
    c0001112:	00002097          	auipc	ra,0x2
    c0001116:	c10080e7          	jalr	-1008(ra) # c0002d22 <vTaskEnterCritical>
    c000111a:	fb843503          	ld	a0,-72(s0)
    c000111e:	08850503          	lb	a0,136(a0)
    c0001122:	55fd                	li	a1,-1
    c0001124:	00b51b63          	bne	a0,a1,c000113a <xQueueSemaphoreTake+0x1ea>
    c0001128:	0040006f          	j	c000112c <xQueueSemaphoreTake+0x1dc>
    c000112c:	fb843503          	ld	a0,-72(s0)
    c0001130:	4581                	li	a1,0
    c0001132:	08b50423          	sb	a1,136(a0)
    c0001136:	0040006f          	j	c000113a <xQueueSemaphoreTake+0x1ea>
    c000113a:	fb843503          	ld	a0,-72(s0)
    c000113e:	08950503          	lb	a0,137(a0)
    c0001142:	55fd                	li	a1,-1
    c0001144:	00b51b63          	bne	a0,a1,c000115a <xQueueSemaphoreTake+0x20a>
    c0001148:	0040006f          	j	c000114c <xQueueSemaphoreTake+0x1fc>
    c000114c:	fb843503          	ld	a0,-72(s0)
    c0001150:	4581                	li	a1,0
    c0001152:	08b504a3          	sb	a1,137(a0)
    c0001156:	0040006f          	j	c000115a <xQueueSemaphoreTake+0x20a>
    c000115a:	00002097          	auipc	ra,0x2
    c000115e:	ca4080e7          	jalr	-860(ra) # c0002dfe <vTaskExitCritical>
    c0001162:	fc040513          	addi	a0,s0,-64
    c0001166:	fd840593          	addi	a1,s0,-40
    c000116a:	00004097          	auipc	ra,0x4
    c000116e:	f90080e7          	jalr	-112(ra) # c00050fa <xTaskCheckForTimeOut>
    c0001172:	4581                	li	a1,0
    c0001174:	0ab51b63          	bne	a0,a1,c000122a <xQueueSemaphoreTake+0x2da>
    c0001178:	0040006f          	j	c000117c <xQueueSemaphoreTake+0x22c>
    c000117c:	fb843503          	ld	a0,-72(s0)
    c0001180:	00001097          	auipc	ra,0x1
    c0001184:	b2a080e7          	jalr	-1238(ra) # c0001caa <prvIsQueueEmpty>
    c0001188:	4581                	li	a1,0
    c000118a:	08b50263          	beq	a0,a1,c000120e <xQueueSemaphoreTake+0x2be>
    c000118e:	0040006f          	j	c0001192 <xQueueSemaphoreTake+0x242>
    c0001192:	fb843503          	ld	a0,-72(s0)
    c0001196:	6108                	ld	a0,0(a0)
    c0001198:	4581                	li	a1,0
    c000119a:	02b51763          	bne	a0,a1,c00011c8 <xQueueSemaphoreTake+0x278>
    c000119e:	0040006f          	j	c00011a2 <xQueueSemaphoreTake+0x252>
    c00011a2:	00002097          	auipc	ra,0x2
    c00011a6:	b80080e7          	jalr	-1152(ra) # c0002d22 <vTaskEnterCritical>
    c00011aa:	fb843503          	ld	a0,-72(s0)
    c00011ae:	6908                	ld	a0,16(a0)
    c00011b0:	00004097          	auipc	ra,0x4
    c00011b4:	3f6080e7          	jalr	1014(ra) # c00055a6 <xTaskPriorityInherit>
    c00011b8:	faa43823          	sd	a0,-80(s0)
    c00011bc:	00002097          	auipc	ra,0x2
    c00011c0:	c42080e7          	jalr	-958(ra) # c0002dfe <vTaskExitCritical>
    c00011c4:	0080006f          	j	c00011cc <xQueueSemaphoreTake+0x27c>
    c00011c8:	0040006f          	j	c00011cc <xQueueSemaphoreTake+0x27c>
    c00011cc:	fb843503          	ld	a0,-72(s0)
    c00011d0:	04850513          	addi	a0,a0,72
    c00011d4:	fd843583          	ld	a1,-40(s0)
    c00011d8:	00004097          	auipc	ra,0x4
    c00011dc:	b16080e7          	jalr	-1258(ra) # c0004cee <vTaskPlaceOnEventList>
    c00011e0:	fb843503          	ld	a0,-72(s0)
    c00011e4:	00000097          	auipc	ra,0x0
    c00011e8:	32a080e7          	jalr	810(ra) # c000150e <prvUnlockQueue>
    c00011ec:	00002097          	auipc	ra,0x2
    c00011f0:	f72080e7          	jalr	-142(ra) # c000315e <xTaskResumeAll>
    c00011f4:	4581                	li	a1,0
    c00011f6:	00b51863          	bne	a0,a1,c0001206 <xQueueSemaphoreTake+0x2b6>
    c00011fa:	0040006f          	j	c00011fe <xQueueSemaphoreTake+0x2ae>
    c00011fe:	00000073          	ecall
    c0001202:	0080006f          	j	c000120a <xQueueSemaphoreTake+0x2ba>
    c0001206:	0040006f          	j	c000120a <xQueueSemaphoreTake+0x2ba>
    c000120a:	01c0006f          	j	c0001226 <xQueueSemaphoreTake+0x2d6>
    c000120e:	fb843503          	ld	a0,-72(s0)
    c0001212:	00000097          	auipc	ra,0x0
    c0001216:	2fc080e7          	jalr	764(ra) # c000150e <prvUnlockQueue>
    c000121a:	00002097          	auipc	ra,0x2
    c000121e:	f44080e7          	jalr	-188(ra) # c000315e <xTaskResumeAll>
    c0001222:	0040006f          	j	c0001226 <xQueueSemaphoreTake+0x2d6>
    c0001226:	08a0006f          	j	c00012b0 <xQueueSemaphoreTake+0x360>
    c000122a:	fb843503          	ld	a0,-72(s0)
    c000122e:	00000097          	auipc	ra,0x0
    c0001232:	2e0080e7          	jalr	736(ra) # c000150e <prvUnlockQueue>
    c0001236:	00002097          	auipc	ra,0x2
    c000123a:	f28080e7          	jalr	-216(ra) # c000315e <xTaskResumeAll>
    c000123e:	fb843583          	ld	a1,-72(s0)
    c0001242:	f8a43823          	sd	a0,-112(s0)
    c0001246:	852e                	mv	a0,a1
    c0001248:	00001097          	auipc	ra,0x1
    c000124c:	a62080e7          	jalr	-1438(ra) # c0001caa <prvIsQueueEmpty>
    c0001250:	4581                	li	a1,0
    c0001252:	04b50b63          	beq	a0,a1,c00012a8 <xQueueSemaphoreTake+0x358>
    c0001256:	0040006f          	j	c000125a <xQueueSemaphoreTake+0x30a>
    c000125a:	fb043503          	ld	a0,-80(s0)
    c000125e:	4581                	li	a1,0
    c0001260:	02b50f63          	beq	a0,a1,c000129e <xQueueSemaphoreTake+0x34e>
    c0001264:	0040006f          	j	c0001268 <xQueueSemaphoreTake+0x318>
    c0001268:	00002097          	auipc	ra,0x2
    c000126c:	aba080e7          	jalr	-1350(ra) # c0002d22 <vTaskEnterCritical>
    c0001270:	fb843503          	ld	a0,-72(s0)
    c0001274:	00001097          	auipc	ra,0x1
    c0001278:	a82080e7          	jalr	-1406(ra) # c0001cf6 <prvGetDisinheritPriorityAfterTimeout>
    c000127c:	faa43023          	sd	a0,-96(s0)
    c0001280:	fb843503          	ld	a0,-72(s0)
    c0001284:	6908                	ld	a0,16(a0)
    c0001286:	fa043583          	ld	a1,-96(s0)
    c000128a:	00004097          	auipc	ra,0x4
    c000128e:	634080e7          	jalr	1588(ra) # c00058be <vTaskPriorityDisinheritAfterTimeout>
    c0001292:	00002097          	auipc	ra,0x2
    c0001296:	b6c080e7          	jalr	-1172(ra) # c0002dfe <vTaskExitCritical>
    c000129a:	0040006f          	j	c000129e <xQueueSemaphoreTake+0x34e>
    c000129e:	4501                	li	a0,0
    c00012a0:	fea43423          	sd	a0,-24(s0)
    c00012a4:	0100006f          	j	c00012b4 <xQueueSemaphoreTake+0x364>
    c00012a8:	0040006f          	j	c00012ac <xQueueSemaphoreTake+0x35c>
    c00012ac:	0040006f          	j	c00012b0 <xQueueSemaphoreTake+0x360>
    c00012b0:	d45ff06f          	j	c0000ff4 <xQueueSemaphoreTake+0xa4>
    c00012b4:	fe843503          	ld	a0,-24(s0)
    c00012b8:	7406                	ld	s0,96(sp)
    c00012ba:	70a6                	ld	ra,104(sp)
    c00012bc:	6165                	addi	sp,sp,112
    c00012be:	8082                	ret

00000000c00012c0 <xQueueCreateCountingSemaphore>:
    c00012c0:	7179                	addi	sp,sp,-48
    c00012c2:	f406                	sd	ra,40(sp)
    c00012c4:	f022                	sd	s0,32(sp)
    c00012c6:	1800                	addi	s0,sp,48
    c00012c8:	fea43423          	sd	a0,-24(s0)
    c00012cc:	feb43023          	sd	a1,-32(s0)
    c00012d0:	fe843503          	ld	a0,-24(s0)
    c00012d4:	4581                	li	a1,0
    c00012d6:	00b51b63          	bne	a0,a1,c00012ec <xQueueCreateCountingSemaphore+0x2c>
    c00012da:	0040006f          	j	c00012de <xQueueCreateCountingSemaphore+0x1e>
    c00012de:	30047073          	csrci	mstatus,8
    c00012e2:	9002                	ebreak
    c00012e4:	0040006f          	j	c00012e8 <xQueueCreateCountingSemaphore+0x28>
    c00012e8:	0000006f          	j	c00012e8 <xQueueCreateCountingSemaphore+0x28>
    c00012ec:	fe043503          	ld	a0,-32(s0)
    c00012f0:	fe843583          	ld	a1,-24(s0)
    c00012f4:	00a5fb63          	bgeu	a1,a0,c000130a <xQueueCreateCountingSemaphore+0x4a>
    c00012f8:	0040006f          	j	c00012fc <xQueueCreateCountingSemaphore+0x3c>
    c00012fc:	30047073          	csrci	mstatus,8
    c0001300:	9002                	ebreak
    c0001302:	0040006f          	j	c0001306 <xQueueCreateCountingSemaphore+0x46>
    c0001306:	0000006f          	j	c0001306 <xQueueCreateCountingSemaphore+0x46>
    c000130a:	fe843503          	ld	a0,-24(s0)
    c000130e:	4581                	li	a1,0
    c0001310:	4609                	li	a2,2
    c0001312:	fcb43823          	sd	a1,-48(s0)
    c0001316:	fffff097          	auipc	ra,0xfffff
    c000131a:	548080e7          	jalr	1352(ra) # c000085e <xQueueGenericCreate>
    c000131e:	fca43c23          	sd	a0,-40(s0)
    c0001322:	fd843503          	ld	a0,-40(s0)
    c0001326:	fd043583          	ld	a1,-48(s0)
    c000132a:	00b50b63          	beq	a0,a1,c0001340 <xQueueCreateCountingSemaphore+0x80>
    c000132e:	0040006f          	j	c0001332 <xQueueCreateCountingSemaphore+0x72>
    c0001332:	fe043503          	ld	a0,-32(s0)
    c0001336:	fd843583          	ld	a1,-40(s0)
    c000133a:	f9a8                	sd	a0,112(a1)
    c000133c:	0080006f          	j	c0001344 <xQueueCreateCountingSemaphore+0x84>
    c0001340:	0040006f          	j	c0001344 <xQueueCreateCountingSemaphore+0x84>
    c0001344:	fd843503          	ld	a0,-40(s0)
    c0001348:	7402                	ld	s0,32(sp)
    c000134a:	70a2                	ld	ra,40(sp)
    c000134c:	6145                	addi	sp,sp,48
    c000134e:	8082                	ret

00000000c0001350 <prvCopyDataToQueue>:
    c0001350:	715d                	addi	sp,sp,-80
    c0001352:	e486                	sd	ra,72(sp)
    c0001354:	e0a2                	sd	s0,64(sp)
    c0001356:	0880                	addi	s0,sp,80
    c0001358:	fea43423          	sd	a0,-24(s0)
    c000135c:	feb43023          	sd	a1,-32(s0)
    c0001360:	fcc43c23          	sd	a2,-40(s0)
    c0001364:	4501                	li	a0,0
    c0001366:	fca43823          	sd	a0,-48(s0)
    c000136a:	fe843583          	ld	a1,-24(s0)
    c000136e:	79ac                	ld	a1,112(a1)
    c0001370:	fcb43423          	sd	a1,-56(s0)
    c0001374:	fe843583          	ld	a1,-24(s0)
    c0001378:	61cc                	ld	a1,128(a1)
    c000137a:	02a59f63          	bne	a1,a0,c00013b8 <prvCopyDataToQueue+0x68>
    c000137e:	0040006f          	j	c0001382 <prvCopyDataToQueue+0x32>
    c0001382:	fe843503          	ld	a0,-24(s0)
    c0001386:	6108                	ld	a0,0(a0)
    c0001388:	4581                	li	a1,0
    c000138a:	02b51363          	bne	a0,a1,c00013b0 <prvCopyDataToQueue+0x60>
    c000138e:	0040006f          	j	c0001392 <prvCopyDataToQueue+0x42>
    c0001392:	fe843503          	ld	a0,-24(s0)
    c0001396:	6908                	ld	a0,16(a0)
    c0001398:	00004097          	auipc	ra,0x4
    c000139c:	3a0080e7          	jalr	928(ra) # c0005738 <xTaskPriorityDisinherit>
    c00013a0:	fca43823          	sd	a0,-48(s0)
    c00013a4:	fe843503          	ld	a0,-24(s0)
    c00013a8:	4581                	li	a1,0
    c00013aa:	e90c                	sd	a1,16(a0)
    c00013ac:	0080006f          	j	c00013b4 <prvCopyDataToQueue+0x64>
    c00013b0:	0040006f          	j	c00013b4 <prvCopyDataToQueue+0x64>
    c00013b4:	0f20006f          	j	c00014a6 <prvCopyDataToQueue+0x156>
    c00013b8:	fd843503          	ld	a0,-40(s0)
    c00013bc:	4581                	li	a1,0
    c00013be:	04b51c63          	bne	a0,a1,c0001416 <prvCopyDataToQueue+0xc6>
    c00013c2:	0040006f          	j	c00013c6 <prvCopyDataToQueue+0x76>
    c00013c6:	fe843503          	ld	a0,-24(s0)
    c00013ca:	650c                	ld	a1,8(a0)
    c00013cc:	fe043603          	ld	a2,-32(s0)
    c00013d0:	6148                	ld	a0,128(a0)
    c00013d2:	fca43023          	sd	a0,-64(s0)
    c00013d6:	852e                	mv	a0,a1
    c00013d8:	85b2                	mv	a1,a2
    c00013da:	fc043603          	ld	a2,-64(s0)
    c00013de:	0000a097          	auipc	ra,0xa
    c00013e2:	906080e7          	jalr	-1786(ra) # c000ace4 <memcpy>
    c00013e6:	fe843583          	ld	a1,-24(s0)
    c00013ea:	61d0                	ld	a2,128(a1)
    c00013ec:	6594                	ld	a3,8(a1)
    c00013ee:	9636                	add	a2,a2,a3
    c00013f0:	e590                	sd	a2,8(a1)
    c00013f2:	fe843583          	ld	a1,-24(s0)
    c00013f6:	6590                	ld	a2,8(a1)
    c00013f8:	698c                	ld	a1,16(a1)
    c00013fa:	00b66a63          	bltu	a2,a1,c000140e <prvCopyDataToQueue+0xbe>
    c00013fe:	0040006f          	j	c0001402 <prvCopyDataToQueue+0xb2>
    c0001402:	fe843503          	ld	a0,-24(s0)
    c0001406:	610c                	ld	a1,0(a0)
    c0001408:	e50c                	sd	a1,8(a0)
    c000140a:	0080006f          	j	c0001412 <prvCopyDataToQueue+0xc2>
    c000140e:	0040006f          	j	c0001412 <prvCopyDataToQueue+0xc2>
    c0001412:	0900006f          	j	c00014a2 <prvCopyDataToQueue+0x152>
    c0001416:	fe843503          	ld	a0,-24(s0)
    c000141a:	6d0c                	ld	a1,24(a0)
    c000141c:	fe043603          	ld	a2,-32(s0)
    c0001420:	6148                	ld	a0,128(a0)
    c0001422:	faa43c23          	sd	a0,-72(s0)
    c0001426:	852e                	mv	a0,a1
    c0001428:	85b2                	mv	a1,a2
    c000142a:	fb843603          	ld	a2,-72(s0)
    c000142e:	0000a097          	auipc	ra,0xa
    c0001432:	8b6080e7          	jalr	-1866(ra) # c000ace4 <memcpy>
    c0001436:	fe843583          	ld	a1,-24(s0)
    c000143a:	61d0                	ld	a2,128(a1)
    c000143c:	6d94                	ld	a3,24(a1)
    c000143e:	40c68633          	sub	a2,a3,a2
    c0001442:	ed90                	sd	a2,24(a1)
    c0001444:	fe843583          	ld	a1,-24(s0)
    c0001448:	6d90                	ld	a2,24(a1)
    c000144a:	618c                	ld	a1,0(a1)
    c000144c:	00b67c63          	bgeu	a2,a1,c0001464 <prvCopyDataToQueue+0x114>
    c0001450:	0040006f          	j	c0001454 <prvCopyDataToQueue+0x104>
    c0001454:	fe843503          	ld	a0,-24(s0)
    c0001458:	690c                	ld	a1,16(a0)
    c000145a:	6150                	ld	a2,128(a0)
    c000145c:	8d91                	sub	a1,a1,a2
    c000145e:	ed0c                	sd	a1,24(a0)
    c0001460:	0080006f          	j	c0001468 <prvCopyDataToQueue+0x118>
    c0001464:	0040006f          	j	c0001468 <prvCopyDataToQueue+0x118>
    c0001468:	fd843503          	ld	a0,-40(s0)
    c000146c:	4589                	li	a1,2
    c000146e:	02b51663          	bne	a0,a1,c000149a <prvCopyDataToQueue+0x14a>
    c0001472:	0040006f          	j	c0001476 <prvCopyDataToQueue+0x126>
    c0001476:	fc843503          	ld	a0,-56(s0)
    c000147a:	4581                	li	a1,0
    c000147c:	00b50b63          	beq	a0,a1,c0001492 <prvCopyDataToQueue+0x142>
    c0001480:	0040006f          	j	c0001484 <prvCopyDataToQueue+0x134>
    c0001484:	fc843503          	ld	a0,-56(s0)
    c0001488:	157d                	addi	a0,a0,-1
    c000148a:	fca43423          	sd	a0,-56(s0)
    c000148e:	0080006f          	j	c0001496 <prvCopyDataToQueue+0x146>
    c0001492:	0040006f          	j	c0001496 <prvCopyDataToQueue+0x146>
    c0001496:	0080006f          	j	c000149e <prvCopyDataToQueue+0x14e>
    c000149a:	0040006f          	j	c000149e <prvCopyDataToQueue+0x14e>
    c000149e:	0040006f          	j	c00014a2 <prvCopyDataToQueue+0x152>
    c00014a2:	0040006f          	j	c00014a6 <prvCopyDataToQueue+0x156>
    c00014a6:	fc843503          	ld	a0,-56(s0)
    c00014aa:	0505                	addi	a0,a0,1
    c00014ac:	fe843583          	ld	a1,-24(s0)
    c00014b0:	f9a8                	sd	a0,112(a1)
    c00014b2:	fd043503          	ld	a0,-48(s0)
    c00014b6:	6406                	ld	s0,64(sp)
    c00014b8:	60a6                	ld	ra,72(sp)
    c00014ba:	6161                	addi	sp,sp,80
    c00014bc:	8082                	ret

00000000c00014be <prvIsQueueFull>:
    c00014be:	1101                	addi	sp,sp,-32
    c00014c0:	ec06                	sd	ra,24(sp)
    c00014c2:	e822                	sd	s0,16(sp)
    c00014c4:	1000                	addi	s0,sp,32
    c00014c6:	fea43423          	sd	a0,-24(s0)
    c00014ca:	00002097          	auipc	ra,0x2
    c00014ce:	858080e7          	jalr	-1960(ra) # c0002d22 <vTaskEnterCritical>
    c00014d2:	fe843503          	ld	a0,-24(s0)
    c00014d6:	7928                	ld	a0,112(a0)
    c00014d8:	fe843583          	ld	a1,-24(s0)
    c00014dc:	7dac                	ld	a1,120(a1)
    c00014de:	00b51963          	bne	a0,a1,c00014f0 <prvIsQueueFull+0x32>
    c00014e2:	0040006f          	j	c00014e6 <prvIsQueueFull+0x28>
    c00014e6:	4505                	li	a0,1
    c00014e8:	fea43023          	sd	a0,-32(s0)
    c00014ec:	00e0006f          	j	c00014fa <prvIsQueueFull+0x3c>
    c00014f0:	4501                	li	a0,0
    c00014f2:	fea43023          	sd	a0,-32(s0)
    c00014f6:	0040006f          	j	c00014fa <prvIsQueueFull+0x3c>
    c00014fa:	00002097          	auipc	ra,0x2
    c00014fe:	904080e7          	jalr	-1788(ra) # c0002dfe <vTaskExitCritical>
    c0001502:	fe043503          	ld	a0,-32(s0)
    c0001506:	6442                	ld	s0,16(sp)
    c0001508:	60e2                	ld	ra,24(sp)
    c000150a:	6105                	addi	sp,sp,32
    c000150c:	8082                	ret

00000000c000150e <prvUnlockQueue>:
    c000150e:	1101                	addi	sp,sp,-32
    c0001510:	ec06                	sd	ra,24(sp)
    c0001512:	e822                	sd	s0,16(sp)
    c0001514:	1000                	addi	s0,sp,32
    c0001516:	fea43423          	sd	a0,-24(s0)
    c000151a:	00002097          	auipc	ra,0x2
    c000151e:	808080e7          	jalr	-2040(ra) # c0002d22 <vTaskEnterCritical>
    c0001522:	fe843503          	ld	a0,-24(s0)
    c0001526:	08950503          	lb	a0,137(a0)
    c000152a:	fea403a3          	sb	a0,-25(s0)
    c000152e:	0040006f          	j	c0001532 <prvUnlockQueue+0x24>
    c0001532:	fe740503          	lb	a0,-25(s0)
    c0001536:	4585                	li	a1,1
    c0001538:	04b54c63          	blt	a0,a1,c0001590 <prvUnlockQueue+0x82>
    c000153c:	0040006f          	j	c0001540 <prvUnlockQueue+0x32>
    c0001540:	fe843503          	ld	a0,-24(s0)
    c0001544:	6528                	ld	a0,72(a0)
    c0001546:	4581                	li	a1,0
    c0001548:	02b50b63          	beq	a0,a1,c000157e <prvUnlockQueue+0x70>
    c000154c:	0040006f          	j	c0001550 <prvUnlockQueue+0x42>
    c0001550:	fe843503          	ld	a0,-24(s0)
    c0001554:	04850513          	addi	a0,a0,72
    c0001558:	00004097          	auipc	ra,0x4
    c000155c:	906080e7          	jalr	-1786(ra) # c0004e5e <xTaskRemoveFromEventList>
    c0001560:	4581                	li	a1,0
    c0001562:	00b50a63          	beq	a0,a1,c0001576 <prvUnlockQueue+0x68>
    c0001566:	0040006f          	j	c000156a <prvUnlockQueue+0x5c>
    c000156a:	00004097          	auipc	ra,0x4
    c000156e:	ce8080e7          	jalr	-792(ra) # c0005252 <vTaskMissedYield>
    c0001572:	0080006f          	j	c000157a <prvUnlockQueue+0x6c>
    c0001576:	0040006f          	j	c000157a <prvUnlockQueue+0x6c>
    c000157a:	0080006f          	j	c0001582 <prvUnlockQueue+0x74>
    c000157e:	0120006f          	j	c0001590 <prvUnlockQueue+0x82>
    c0001582:	fe740503          	lb	a0,-25(s0)
    c0001586:	157d                	addi	a0,a0,-1
    c0001588:	fea403a3          	sb	a0,-25(s0)
    c000158c:	fa7ff06f          	j	c0001532 <prvUnlockQueue+0x24>
    c0001590:	fe843503          	ld	a0,-24(s0)
    c0001594:	0ff00593          	li	a1,255
    c0001598:	08b504a3          	sb	a1,137(a0)
    c000159c:	00002097          	auipc	ra,0x2
    c00015a0:	862080e7          	jalr	-1950(ra) # c0002dfe <vTaskExitCritical>
    c00015a4:	00001097          	auipc	ra,0x1
    c00015a8:	77e080e7          	jalr	1918(ra) # c0002d22 <vTaskEnterCritical>
    c00015ac:	fe843503          	ld	a0,-24(s0)
    c00015b0:	08850503          	lb	a0,136(a0)
    c00015b4:	fea40323          	sb	a0,-26(s0)
    c00015b8:	0040006f          	j	c00015bc <prvUnlockQueue+0xae>
    c00015bc:	fe640503          	lb	a0,-26(s0)
    c00015c0:	4585                	li	a1,1
    c00015c2:	04b54c63          	blt	a0,a1,c000161a <prvUnlockQueue+0x10c>
    c00015c6:	0040006f          	j	c00015ca <prvUnlockQueue+0xbc>
    c00015ca:	fe843503          	ld	a0,-24(s0)
    c00015ce:	7108                	ld	a0,32(a0)
    c00015d0:	4581                	li	a1,0
    c00015d2:	04b50063          	beq	a0,a1,c0001612 <prvUnlockQueue+0x104>
    c00015d6:	0040006f          	j	c00015da <prvUnlockQueue+0xcc>
    c00015da:	fe843503          	ld	a0,-24(s0)
    c00015de:	02050513          	addi	a0,a0,32
    c00015e2:	00004097          	auipc	ra,0x4
    c00015e6:	87c080e7          	jalr	-1924(ra) # c0004e5e <xTaskRemoveFromEventList>
    c00015ea:	4581                	li	a1,0
    c00015ec:	00b50a63          	beq	a0,a1,c0001600 <prvUnlockQueue+0xf2>
    c00015f0:	0040006f          	j	c00015f4 <prvUnlockQueue+0xe6>
    c00015f4:	00004097          	auipc	ra,0x4
    c00015f8:	c5e080e7          	jalr	-930(ra) # c0005252 <vTaskMissedYield>
    c00015fc:	0080006f          	j	c0001604 <prvUnlockQueue+0xf6>
    c0001600:	0040006f          	j	c0001604 <prvUnlockQueue+0xf6>
    c0001604:	fe640503          	lb	a0,-26(s0)
    c0001608:	157d                	addi	a0,a0,-1
    c000160a:	fea40323          	sb	a0,-26(s0)
    c000160e:	0080006f          	j	c0001616 <prvUnlockQueue+0x108>
    c0001612:	0080006f          	j	c000161a <prvUnlockQueue+0x10c>
    c0001616:	fa7ff06f          	j	c00015bc <prvUnlockQueue+0xae>
    c000161a:	fe843503          	ld	a0,-24(s0)
    c000161e:	0ff00593          	li	a1,255
    c0001622:	08b50423          	sb	a1,136(a0)
    c0001626:	00001097          	auipc	ra,0x1
    c000162a:	7d8080e7          	jalr	2008(ra) # c0002dfe <vTaskExitCritical>
    c000162e:	6442                	ld	s0,16(sp)
    c0001630:	60e2                	ld	ra,24(sp)
    c0001632:	6105                	addi	sp,sp,32
    c0001634:	8082                	ret

00000000c0001636 <xQueueGenericSendFromISR>:
    c0001636:	711d                	addi	sp,sp,-96
    c0001638:	ec86                	sd	ra,88(sp)
    c000163a:	e8a2                	sd	s0,80(sp)
    c000163c:	1080                	addi	s0,sp,96
    c000163e:	fea43423          	sd	a0,-24(s0)
    c0001642:	feb43023          	sd	a1,-32(s0)
    c0001646:	fcc43c23          	sd	a2,-40(s0)
    c000164a:	fcd43823          	sd	a3,-48(s0)
    c000164e:	fe843503          	ld	a0,-24(s0)
    c0001652:	faa43c23          	sd	a0,-72(s0)
    c0001656:	fb843503          	ld	a0,-72(s0)
    c000165a:	4581                	li	a1,0
    c000165c:	00b51b63          	bne	a0,a1,c0001672 <xQueueGenericSendFromISR+0x3c>
    c0001660:	0040006f          	j	c0001664 <xQueueGenericSendFromISR+0x2e>
    c0001664:	30047073          	csrci	mstatus,8
    c0001668:	9002                	ebreak
    c000166a:	0040006f          	j	c000166e <xQueueGenericSendFromISR+0x38>
    c000166e:	0000006f          	j	c000166e <xQueueGenericSendFromISR+0x38>
    c0001672:	fe043503          	ld	a0,-32(s0)
    c0001676:	4581                	li	a1,0
    c0001678:	862e                	mv	a2,a1
    c000167a:	fac43423          	sd	a2,-88(s0)
    c000167e:	00b51d63          	bne	a0,a1,c0001698 <xQueueGenericSendFromISR+0x62>
    c0001682:	0040006f          	j	c0001686 <xQueueGenericSendFromISR+0x50>
    c0001686:	fb843503          	ld	a0,-72(s0)
    c000168a:	6148                	ld	a0,128(a0)
    c000168c:	00a03533          	snez	a0,a0
    c0001690:	faa43423          	sd	a0,-88(s0)
    c0001694:	0040006f          	j	c0001698 <xQueueGenericSendFromISR+0x62>
    c0001698:	fa843503          	ld	a0,-88(s0)
    c000169c:	8905                	andi	a0,a0,1
    c000169e:	4581                	li	a1,0
    c00016a0:	00b50b63          	beq	a0,a1,c00016b6 <xQueueGenericSendFromISR+0x80>
    c00016a4:	0040006f          	j	c00016a8 <xQueueGenericSendFromISR+0x72>
    c00016a8:	30047073          	csrci	mstatus,8
    c00016ac:	9002                	ebreak
    c00016ae:	0040006f          	j	c00016b2 <xQueueGenericSendFromISR+0x7c>
    c00016b2:	0000006f          	j	c00016b2 <xQueueGenericSendFromISR+0x7c>
    c00016b6:	fd043503          	ld	a0,-48(s0)
    c00016ba:	4581                	li	a1,0
    c00016bc:	4609                	li	a2,2
    c00016be:	fab43023          	sd	a1,-96(s0)
    c00016c2:	00c51e63          	bne	a0,a2,c00016de <xQueueGenericSendFromISR+0xa8>
    c00016c6:	0040006f          	j	c00016ca <xQueueGenericSendFromISR+0x94>
    c00016ca:	fb843503          	ld	a0,-72(s0)
    c00016ce:	7d28                	ld	a0,120(a0)
    c00016d0:	157d                	addi	a0,a0,-1
    c00016d2:	00a03533          	snez	a0,a0
    c00016d6:	faa43023          	sd	a0,-96(s0)
    c00016da:	0040006f          	j	c00016de <xQueueGenericSendFromISR+0xa8>
    c00016de:	fa043503          	ld	a0,-96(s0)
    c00016e2:	8905                	andi	a0,a0,1
    c00016e4:	4581                	li	a1,0
    c00016e6:	00b50b63          	beq	a0,a1,c00016fc <xQueueGenericSendFromISR+0xc6>
    c00016ea:	0040006f          	j	c00016ee <xQueueGenericSendFromISR+0xb8>
    c00016ee:	30047073          	csrci	mstatus,8
    c00016f2:	9002                	ebreak
    c00016f4:	0040006f          	j	c00016f8 <xQueueGenericSendFromISR+0xc2>
    c00016f8:	0000006f          	j	c00016f8 <xQueueGenericSendFromISR+0xc2>
    c00016fc:	4501                	li	a0,0
    c00016fe:	fca43023          	sd	a0,-64(s0)
    c0001702:	fb843503          	ld	a0,-72(s0)
    c0001706:	7928                	ld	a0,112(a0)
    c0001708:	fb843583          	ld	a1,-72(s0)
    c000170c:	7dac                	ld	a1,120(a1)
    c000170e:	00b56b63          	bltu	a0,a1,c0001724 <xQueueGenericSendFromISR+0xee>
    c0001712:	0040006f          	j	c0001716 <xQueueGenericSendFromISR+0xe0>
    c0001716:	fd043503          	ld	a0,-48(s0)
    c000171a:	4589                	li	a1,2
    c000171c:	0ab51763          	bne	a0,a1,c00017ca <xQueueGenericSendFromISR+0x194>
    c0001720:	0040006f          	j	c0001724 <xQueueGenericSendFromISR+0xee>
    c0001724:	fb843503          	ld	a0,-72(s0)
    c0001728:	08950503          	lb	a0,137(a0)
    c000172c:	faa40ba3          	sb	a0,-73(s0)
    c0001730:	fb740503          	lb	a0,-73(s0)
    c0001734:	55fd                	li	a1,-1
    c0001736:	06b51c63          	bne	a0,a1,c00017ae <xQueueGenericSendFromISR+0x178>
    c000173a:	0040006f          	j	c000173e <xQueueGenericSendFromISR+0x108>
    c000173e:	fb843503          	ld	a0,-72(s0)
    c0001742:	fe043583          	ld	a1,-32(s0)
    c0001746:	fd043603          	ld	a2,-48(s0)
    c000174a:	00000097          	auipc	ra,0x0
    c000174e:	c06080e7          	jalr	-1018(ra) # c0001350 <prvCopyDataToQueue>
    c0001752:	fb843583          	ld	a1,-72(s0)
    c0001756:	65ac                	ld	a1,72(a1)
    c0001758:	4601                	li	a2,0
    c000175a:	04c58663          	beq	a1,a2,c00017a6 <xQueueGenericSendFromISR+0x170>
    c000175e:	0040006f          	j	c0001762 <xQueueGenericSendFromISR+0x12c>
    c0001762:	fb843503          	ld	a0,-72(s0)
    c0001766:	04850513          	addi	a0,a0,72
    c000176a:	00003097          	auipc	ra,0x3
    c000176e:	6f4080e7          	jalr	1780(ra) # c0004e5e <xTaskRemoveFromEventList>
    c0001772:	4581                	li	a1,0
    c0001774:	02b50563          	beq	a0,a1,c000179e <xQueueGenericSendFromISR+0x168>
    c0001778:	0040006f          	j	c000177c <xQueueGenericSendFromISR+0x146>
    c000177c:	fd843503          	ld	a0,-40(s0)
    c0001780:	4581                	li	a1,0
    c0001782:	00b50a63          	beq	a0,a1,c0001796 <xQueueGenericSendFromISR+0x160>
    c0001786:	0040006f          	j	c000178a <xQueueGenericSendFromISR+0x154>
    c000178a:	fd843503          	ld	a0,-40(s0)
    c000178e:	4585                	li	a1,1
    c0001790:	e10c                	sd	a1,0(a0)
    c0001792:	0080006f          	j	c000179a <xQueueGenericSendFromISR+0x164>
    c0001796:	0040006f          	j	c000179a <xQueueGenericSendFromISR+0x164>
    c000179a:	0080006f          	j	c00017a2 <xQueueGenericSendFromISR+0x16c>
    c000179e:	0040006f          	j	c00017a2 <xQueueGenericSendFromISR+0x16c>
    c00017a2:	0080006f          	j	c00017aa <xQueueGenericSendFromISR+0x174>
    c00017a6:	0040006f          	j	c00017aa <xQueueGenericSendFromISR+0x174>
    c00017aa:	0160006f          	j	c00017c0 <xQueueGenericSendFromISR+0x18a>
    c00017ae:	fb740503          	lb	a0,-73(s0)
    c00017b2:	0505                	addi	a0,a0,1
    c00017b4:	fb843583          	ld	a1,-72(s0)
    c00017b8:	08a584a3          	sb	a0,137(a1)
    c00017bc:	0040006f          	j	c00017c0 <xQueueGenericSendFromISR+0x18a>
    c00017c0:	4505                	li	a0,1
    c00017c2:	fca43423          	sd	a0,-56(s0)
    c00017c6:	00e0006f          	j	c00017d4 <xQueueGenericSendFromISR+0x19e>
    c00017ca:	4501                	li	a0,0
    c00017cc:	fca43423          	sd	a0,-56(s0)
    c00017d0:	0040006f          	j	c00017d4 <xQueueGenericSendFromISR+0x19e>
    c00017d4:	fc843503          	ld	a0,-56(s0)
    c00017d8:	6446                	ld	s0,80(sp)
    c00017da:	60e6                	ld	ra,88(sp)
    c00017dc:	6125                	addi	sp,sp,96
    c00017de:	8082                	ret

00000000c00017e0 <xQueueGiveFromISR>:
    c00017e0:	715d                	addi	sp,sp,-80
    c00017e2:	e486                	sd	ra,72(sp)
    c00017e4:	e0a2                	sd	s0,64(sp)
    c00017e6:	0880                	addi	s0,sp,80
    c00017e8:	fea43423          	sd	a0,-24(s0)
    c00017ec:	feb43023          	sd	a1,-32(s0)
    c00017f0:	fe843503          	ld	a0,-24(s0)
    c00017f4:	fca43423          	sd	a0,-56(s0)
    c00017f8:	fc843503          	ld	a0,-56(s0)
    c00017fc:	4581                	li	a1,0
    c00017fe:	00b51b63          	bne	a0,a1,c0001814 <xQueueGiveFromISR+0x34>
    c0001802:	0040006f          	j	c0001806 <xQueueGiveFromISR+0x26>
    c0001806:	30047073          	csrci	mstatus,8
    c000180a:	9002                	ebreak
    c000180c:	0040006f          	j	c0001810 <xQueueGiveFromISR+0x30>
    c0001810:	0000006f          	j	c0001810 <xQueueGiveFromISR+0x30>
    c0001814:	fc843503          	ld	a0,-56(s0)
    c0001818:	6148                	ld	a0,128(a0)
    c000181a:	4581                	li	a1,0
    c000181c:	00b50b63          	beq	a0,a1,c0001832 <xQueueGiveFromISR+0x52>
    c0001820:	0040006f          	j	c0001824 <xQueueGiveFromISR+0x44>
    c0001824:	30047073          	csrci	mstatus,8
    c0001828:	9002                	ebreak
    c000182a:	0040006f          	j	c000182e <xQueueGiveFromISR+0x4e>
    c000182e:	0000006f          	j	c000182e <xQueueGiveFromISR+0x4e>
    c0001832:	fc843503          	ld	a0,-56(s0)
    c0001836:	6108                	ld	a0,0(a0)
    c0001838:	4581                	li	a1,0
    c000183a:	862e                	mv	a2,a1
    c000183c:	fac43823          	sd	a2,-80(s0)
    c0001840:	00b51d63          	bne	a0,a1,c000185a <xQueueGiveFromISR+0x7a>
    c0001844:	0040006f          	j	c0001848 <xQueueGiveFromISR+0x68>
    c0001848:	fc843503          	ld	a0,-56(s0)
    c000184c:	6908                	ld	a0,16(a0)
    c000184e:	00a03533          	snez	a0,a0
    c0001852:	faa43823          	sd	a0,-80(s0)
    c0001856:	0040006f          	j	c000185a <xQueueGiveFromISR+0x7a>
    c000185a:	fb043503          	ld	a0,-80(s0)
    c000185e:	8905                	andi	a0,a0,1
    c0001860:	4581                	li	a1,0
    c0001862:	00b50b63          	beq	a0,a1,c0001878 <xQueueGiveFromISR+0x98>
    c0001866:	0040006f          	j	c000186a <xQueueGiveFromISR+0x8a>
    c000186a:	30047073          	csrci	mstatus,8
    c000186e:	9002                	ebreak
    c0001870:	0040006f          	j	c0001874 <xQueueGiveFromISR+0x94>
    c0001874:	0000006f          	j	c0001874 <xQueueGiveFromISR+0x94>
    c0001878:	4501                	li	a0,0
    c000187a:	fca43823          	sd	a0,-48(s0)
    c000187e:	fc843503          	ld	a0,-56(s0)
    c0001882:	7928                	ld	a0,112(a0)
    c0001884:	fca43023          	sd	a0,-64(s0)
    c0001888:	fc043503          	ld	a0,-64(s0)
    c000188c:	fc843583          	ld	a1,-56(s0)
    c0001890:	7dac                	ld	a1,120(a1)
    c0001892:	0ab57363          	bgeu	a0,a1,c0001938 <xQueueGiveFromISR+0x158>
    c0001896:	0040006f          	j	c000189a <xQueueGiveFromISR+0xba>
    c000189a:	fc843503          	ld	a0,-56(s0)
    c000189e:	08950503          	lb	a0,137(a0)
    c00018a2:	faa40fa3          	sb	a0,-65(s0)
    c00018a6:	fc043503          	ld	a0,-64(s0)
    c00018aa:	0505                	addi	a0,a0,1
    c00018ac:	fc843583          	ld	a1,-56(s0)
    c00018b0:	f9a8                	sd	a0,112(a1)
    c00018b2:	fbf40503          	lb	a0,-65(s0)
    c00018b6:	55fd                	li	a1,-1
    c00018b8:	06b51263          	bne	a0,a1,c000191c <xQueueGiveFromISR+0x13c>
    c00018bc:	0040006f          	j	c00018c0 <xQueueGiveFromISR+0xe0>
    c00018c0:	fc843503          	ld	a0,-56(s0)
    c00018c4:	6528                	ld	a0,72(a0)
    c00018c6:	4581                	li	a1,0
    c00018c8:	04b50663          	beq	a0,a1,c0001914 <xQueueGiveFromISR+0x134>
    c00018cc:	0040006f          	j	c00018d0 <xQueueGiveFromISR+0xf0>
    c00018d0:	fc843503          	ld	a0,-56(s0)
    c00018d4:	04850513          	addi	a0,a0,72
    c00018d8:	00003097          	auipc	ra,0x3
    c00018dc:	586080e7          	jalr	1414(ra) # c0004e5e <xTaskRemoveFromEventList>
    c00018e0:	4581                	li	a1,0
    c00018e2:	02b50563          	beq	a0,a1,c000190c <xQueueGiveFromISR+0x12c>
    c00018e6:	0040006f          	j	c00018ea <xQueueGiveFromISR+0x10a>
    c00018ea:	fe043503          	ld	a0,-32(s0)
    c00018ee:	4581                	li	a1,0
    c00018f0:	00b50a63          	beq	a0,a1,c0001904 <xQueueGiveFromISR+0x124>
    c00018f4:	0040006f          	j	c00018f8 <xQueueGiveFromISR+0x118>
    c00018f8:	fe043503          	ld	a0,-32(s0)
    c00018fc:	4585                	li	a1,1
    c00018fe:	e10c                	sd	a1,0(a0)
    c0001900:	0080006f          	j	c0001908 <xQueueGiveFromISR+0x128>
    c0001904:	0040006f          	j	c0001908 <xQueueGiveFromISR+0x128>
    c0001908:	0080006f          	j	c0001910 <xQueueGiveFromISR+0x130>
    c000190c:	0040006f          	j	c0001910 <xQueueGiveFromISR+0x130>
    c0001910:	0080006f          	j	c0001918 <xQueueGiveFromISR+0x138>
    c0001914:	0040006f          	j	c0001918 <xQueueGiveFromISR+0x138>
    c0001918:	0160006f          	j	c000192e <xQueueGiveFromISR+0x14e>
    c000191c:	fbf40503          	lb	a0,-65(s0)
    c0001920:	0505                	addi	a0,a0,1
    c0001922:	fc843583          	ld	a1,-56(s0)
    c0001926:	08a584a3          	sb	a0,137(a1)
    c000192a:	0040006f          	j	c000192e <xQueueGiveFromISR+0x14e>
    c000192e:	4505                	li	a0,1
    c0001930:	fca43c23          	sd	a0,-40(s0)
    c0001934:	00e0006f          	j	c0001942 <xQueueGiveFromISR+0x162>
    c0001938:	4501                	li	a0,0
    c000193a:	fca43c23          	sd	a0,-40(s0)
    c000193e:	0040006f          	j	c0001942 <xQueueGiveFromISR+0x162>
    c0001942:	fd843503          	ld	a0,-40(s0)
    c0001946:	6406                	ld	s0,64(sp)
    c0001948:	60a6                	ld	ra,72(sp)
    c000194a:	6161                	addi	sp,sp,80
    c000194c:	8082                	ret

00000000c000194e <xQueueReceive>:
    c000194e:	7159                	addi	sp,sp,-112
    c0001950:	f486                	sd	ra,104(sp)
    c0001952:	f0a2                	sd	s0,96(sp)
    c0001954:	1880                	addi	s0,sp,112
    c0001956:	fea43023          	sd	a0,-32(s0)
    c000195a:	fcb43c23          	sd	a1,-40(s0)
    c000195e:	fcc43823          	sd	a2,-48(s0)
    c0001962:	4501                	li	a0,0
    c0001964:	fca43423          	sd	a0,-56(s0)
    c0001968:	fe043583          	ld	a1,-32(s0)
    c000196c:	fab43823          	sd	a1,-80(s0)
    c0001970:	fb043583          	ld	a1,-80(s0)
    c0001974:	00a59b63          	bne	a1,a0,c000198a <xQueueReceive+0x3c>
    c0001978:	0040006f          	j	c000197c <xQueueReceive+0x2e>
    c000197c:	30047073          	csrci	mstatus,8
    c0001980:	9002                	ebreak
    c0001982:	0040006f          	j	c0001986 <xQueueReceive+0x38>
    c0001986:	0000006f          	j	c0001986 <xQueueReceive+0x38>
    c000198a:	fd843503          	ld	a0,-40(s0)
    c000198e:	4581                	li	a1,0
    c0001990:	862e                	mv	a2,a1
    c0001992:	fac43023          	sd	a2,-96(s0)
    c0001996:	00b51d63          	bne	a0,a1,c00019b0 <xQueueReceive+0x62>
    c000199a:	0040006f          	j	c000199e <xQueueReceive+0x50>
    c000199e:	fb043503          	ld	a0,-80(s0)
    c00019a2:	6148                	ld	a0,128(a0)
    c00019a4:	00a03533          	snez	a0,a0
    c00019a8:	faa43023          	sd	a0,-96(s0)
    c00019ac:	0040006f          	j	c00019b0 <xQueueReceive+0x62>
    c00019b0:	fa043503          	ld	a0,-96(s0)
    c00019b4:	8905                	andi	a0,a0,1
    c00019b6:	4581                	li	a1,0
    c00019b8:	00b50b63          	beq	a0,a1,c00019ce <xQueueReceive+0x80>
    c00019bc:	0040006f          	j	c00019c0 <xQueueReceive+0x72>
    c00019c0:	30047073          	csrci	mstatus,8
    c00019c4:	9002                	ebreak
    c00019c6:	0040006f          	j	c00019ca <xQueueReceive+0x7c>
    c00019ca:	0000006f          	j	c00019ca <xQueueReceive+0x7c>
    c00019ce:	00004097          	auipc	ra,0x4
    c00019d2:	b7a080e7          	jalr	-1158(ra) # c0005548 <xTaskGetSchedulerState>
    c00019d6:	4581                	li	a1,0
    c00019d8:	862e                	mv	a2,a1
    c00019da:	f8c43c23          	sd	a2,-104(s0)
    c00019de:	00b51c63          	bne	a0,a1,c00019f6 <xQueueReceive+0xa8>
    c00019e2:	0040006f          	j	c00019e6 <xQueueReceive+0x98>
    c00019e6:	fd043503          	ld	a0,-48(s0)
    c00019ea:	00a03533          	snez	a0,a0
    c00019ee:	f8a43c23          	sd	a0,-104(s0)
    c00019f2:	0040006f          	j	c00019f6 <xQueueReceive+0xa8>
    c00019f6:	f9843503          	ld	a0,-104(s0)
    c00019fa:	8905                	andi	a0,a0,1
    c00019fc:	4581                	li	a1,0
    c00019fe:	00b50b63          	beq	a0,a1,c0001a14 <xQueueReceive+0xc6>
    c0001a02:	0040006f          	j	c0001a06 <xQueueReceive+0xb8>
    c0001a06:	30047073          	csrci	mstatus,8
    c0001a0a:	9002                	ebreak
    c0001a0c:	0040006f          	j	c0001a10 <xQueueReceive+0xc2>
    c0001a10:	0000006f          	j	c0001a10 <xQueueReceive+0xc2>
    c0001a14:	0040006f          	j	c0001a18 <xQueueReceive+0xca>
    c0001a18:	00001097          	auipc	ra,0x1
    c0001a1c:	30a080e7          	jalr	778(ra) # c0002d22 <vTaskEnterCritical>
    c0001a20:	fb043503          	ld	a0,-80(s0)
    c0001a24:	7928                	ld	a0,112(a0)
    c0001a26:	faa43423          	sd	a0,-88(s0)
    c0001a2a:	fa843503          	ld	a0,-88(s0)
    c0001a2e:	4581                	li	a1,0
    c0001a30:	06b50a63          	beq	a0,a1,c0001aa4 <xQueueReceive+0x156>
    c0001a34:	0040006f          	j	c0001a38 <xQueueReceive+0xea>
    c0001a38:	fb043503          	ld	a0,-80(s0)
    c0001a3c:	fd843583          	ld	a1,-40(s0)
    c0001a40:	00000097          	auipc	ra,0x0
    c0001a44:	1f4080e7          	jalr	500(ra) # c0001c34 <prvCopyDataFromQueue>
    c0001a48:	fa843503          	ld	a0,-88(s0)
    c0001a4c:	157d                	addi	a0,a0,-1
    c0001a4e:	fb043583          	ld	a1,-80(s0)
    c0001a52:	f9a8                	sd	a0,112(a1)
    c0001a54:	fb043503          	ld	a0,-80(s0)
    c0001a58:	7108                	ld	a0,32(a0)
    c0001a5a:	4581                	li	a1,0
    c0001a5c:	02b50963          	beq	a0,a1,c0001a8e <xQueueReceive+0x140>
    c0001a60:	0040006f          	j	c0001a64 <xQueueReceive+0x116>
    c0001a64:	fb043503          	ld	a0,-80(s0)
    c0001a68:	02050513          	addi	a0,a0,32
    c0001a6c:	00003097          	auipc	ra,0x3
    c0001a70:	3f2080e7          	jalr	1010(ra) # c0004e5e <xTaskRemoveFromEventList>
    c0001a74:	4581                	li	a1,0
    c0001a76:	00b50863          	beq	a0,a1,c0001a86 <xQueueReceive+0x138>
    c0001a7a:	0040006f          	j	c0001a7e <xQueueReceive+0x130>
    c0001a7e:	00000073          	ecall
    c0001a82:	0080006f          	j	c0001a8a <xQueueReceive+0x13c>
    c0001a86:	0040006f          	j	c0001a8a <xQueueReceive+0x13c>
    c0001a8a:	0080006f          	j	c0001a92 <xQueueReceive+0x144>
    c0001a8e:	0040006f          	j	c0001a92 <xQueueReceive+0x144>
    c0001a92:	00001097          	auipc	ra,0x1
    c0001a96:	36c080e7          	jalr	876(ra) # c0002dfe <vTaskExitCritical>
    c0001a9a:	4505                	li	a0,1
    c0001a9c:	fea43423          	sd	a0,-24(s0)
    c0001aa0:	1880006f          	j	c0001c28 <xQueueReceive+0x2da>
    c0001aa4:	fd043503          	ld	a0,-48(s0)
    c0001aa8:	4581                	li	a1,0
    c0001aaa:	00b51d63          	bne	a0,a1,c0001ac4 <xQueueReceive+0x176>
    c0001aae:	0040006f          	j	c0001ab2 <xQueueReceive+0x164>
    c0001ab2:	00001097          	auipc	ra,0x1
    c0001ab6:	34c080e7          	jalr	844(ra) # c0002dfe <vTaskExitCritical>
    c0001aba:	4501                	li	a0,0
    c0001abc:	fea43423          	sd	a0,-24(s0)
    c0001ac0:	1680006f          	j	c0001c28 <xQueueReceive+0x2da>
    c0001ac4:	fc843503          	ld	a0,-56(s0)
    c0001ac8:	4581                	li	a1,0
    c0001aca:	00b51f63          	bne	a0,a1,c0001ae8 <xQueueReceive+0x19a>
    c0001ace:	0040006f          	j	c0001ad2 <xQueueReceive+0x184>
    c0001ad2:	fb840513          	addi	a0,s0,-72
    c0001ad6:	00003097          	auipc	ra,0x3
    c0001ada:	5f0080e7          	jalr	1520(ra) # c00050c6 <vTaskInternalSetTimeOutState>
    c0001ade:	4505                	li	a0,1
    c0001ae0:	fca43423          	sd	a0,-56(s0)
    c0001ae4:	0080006f          	j	c0001aec <xQueueReceive+0x19e>
    c0001ae8:	0040006f          	j	c0001aec <xQueueReceive+0x19e>
    c0001aec:	0040006f          	j	c0001af0 <xQueueReceive+0x1a2>
    c0001af0:	0040006f          	j	c0001af4 <xQueueReceive+0x1a6>
    c0001af4:	00001097          	auipc	ra,0x1
    c0001af8:	30a080e7          	jalr	778(ra) # c0002dfe <vTaskExitCritical>
    c0001afc:	00001097          	auipc	ra,0x1
    c0001b00:	4e6080e7          	jalr	1254(ra) # c0002fe2 <vTaskSuspendAll>
    c0001b04:	00001097          	auipc	ra,0x1
    c0001b08:	21e080e7          	jalr	542(ra) # c0002d22 <vTaskEnterCritical>
    c0001b0c:	fb043503          	ld	a0,-80(s0)
    c0001b10:	08850503          	lb	a0,136(a0)
    c0001b14:	55fd                	li	a1,-1
    c0001b16:	00b51b63          	bne	a0,a1,c0001b2c <xQueueReceive+0x1de>
    c0001b1a:	0040006f          	j	c0001b1e <xQueueReceive+0x1d0>
    c0001b1e:	fb043503          	ld	a0,-80(s0)
    c0001b22:	4581                	li	a1,0
    c0001b24:	08b50423          	sb	a1,136(a0)
    c0001b28:	0040006f          	j	c0001b2c <xQueueReceive+0x1de>
    c0001b2c:	fb043503          	ld	a0,-80(s0)
    c0001b30:	08950503          	lb	a0,137(a0)
    c0001b34:	55fd                	li	a1,-1
    c0001b36:	00b51b63          	bne	a0,a1,c0001b4c <xQueueReceive+0x1fe>
    c0001b3a:	0040006f          	j	c0001b3e <xQueueReceive+0x1f0>
    c0001b3e:	fb043503          	ld	a0,-80(s0)
    c0001b42:	4581                	li	a1,0
    c0001b44:	08b504a3          	sb	a1,137(a0)
    c0001b48:	0040006f          	j	c0001b4c <xQueueReceive+0x1fe>
    c0001b4c:	00001097          	auipc	ra,0x1
    c0001b50:	2b2080e7          	jalr	690(ra) # c0002dfe <vTaskExitCritical>
    c0001b54:	fb840513          	addi	a0,s0,-72
    c0001b58:	fd040593          	addi	a1,s0,-48
    c0001b5c:	00003097          	auipc	ra,0x3
    c0001b60:	59e080e7          	jalr	1438(ra) # c00050fa <xTaskCheckForTimeOut>
    c0001b64:	4581                	li	a1,0
    c0001b66:	06b51e63          	bne	a0,a1,c0001be2 <xQueueReceive+0x294>
    c0001b6a:	0040006f          	j	c0001b6e <xQueueReceive+0x220>
    c0001b6e:	fb043503          	ld	a0,-80(s0)
    c0001b72:	00000097          	auipc	ra,0x0
    c0001b76:	138080e7          	jalr	312(ra) # c0001caa <prvIsQueueEmpty>
    c0001b7a:	4581                	li	a1,0
    c0001b7c:	04b50563          	beq	a0,a1,c0001bc6 <xQueueReceive+0x278>
    c0001b80:	0040006f          	j	c0001b84 <xQueueReceive+0x236>
    c0001b84:	fb043503          	ld	a0,-80(s0)
    c0001b88:	04850513          	addi	a0,a0,72
    c0001b8c:	fd043583          	ld	a1,-48(s0)
    c0001b90:	00003097          	auipc	ra,0x3
    c0001b94:	15e080e7          	jalr	350(ra) # c0004cee <vTaskPlaceOnEventList>
    c0001b98:	fb043503          	ld	a0,-80(s0)
    c0001b9c:	00000097          	auipc	ra,0x0
    c0001ba0:	972080e7          	jalr	-1678(ra) # c000150e <prvUnlockQueue>
    c0001ba4:	00001097          	auipc	ra,0x1
    c0001ba8:	5ba080e7          	jalr	1466(ra) # c000315e <xTaskResumeAll>
    c0001bac:	4581                	li	a1,0
    c0001bae:	00b51863          	bne	a0,a1,c0001bbe <xQueueReceive+0x270>
    c0001bb2:	0040006f          	j	c0001bb6 <xQueueReceive+0x268>
    c0001bb6:	00000073          	ecall
    c0001bba:	0080006f          	j	c0001bc2 <xQueueReceive+0x274>
    c0001bbe:	0040006f          	j	c0001bc2 <xQueueReceive+0x274>
    c0001bc2:	01c0006f          	j	c0001bde <xQueueReceive+0x290>
    c0001bc6:	fb043503          	ld	a0,-80(s0)
    c0001bca:	00000097          	auipc	ra,0x0
    c0001bce:	944080e7          	jalr	-1724(ra) # c000150e <prvUnlockQueue>
    c0001bd2:	00001097          	auipc	ra,0x1
    c0001bd6:	58c080e7          	jalr	1420(ra) # c000315e <xTaskResumeAll>
    c0001bda:	0040006f          	j	c0001bde <xQueueReceive+0x290>
    c0001bde:	0460006f          	j	c0001c24 <xQueueReceive+0x2d6>
    c0001be2:	fb043503          	ld	a0,-80(s0)
    c0001be6:	00000097          	auipc	ra,0x0
    c0001bea:	928080e7          	jalr	-1752(ra) # c000150e <prvUnlockQueue>
    c0001bee:	00001097          	auipc	ra,0x1
    c0001bf2:	570080e7          	jalr	1392(ra) # c000315e <xTaskResumeAll>
    c0001bf6:	fb043583          	ld	a1,-80(s0)
    c0001bfa:	f8a43823          	sd	a0,-112(s0)
    c0001bfe:	852e                	mv	a0,a1
    c0001c00:	00000097          	auipc	ra,0x0
    c0001c04:	0aa080e7          	jalr	170(ra) # c0001caa <prvIsQueueEmpty>
    c0001c08:	4581                	li	a1,0
    c0001c0a:	00b50963          	beq	a0,a1,c0001c1c <xQueueReceive+0x2ce>
    c0001c0e:	0040006f          	j	c0001c12 <xQueueReceive+0x2c4>
    c0001c12:	4501                	li	a0,0
    c0001c14:	fea43423          	sd	a0,-24(s0)
    c0001c18:	0100006f          	j	c0001c28 <xQueueReceive+0x2da>
    c0001c1c:	0040006f          	j	c0001c20 <xQueueReceive+0x2d2>
    c0001c20:	0040006f          	j	c0001c24 <xQueueReceive+0x2d6>
    c0001c24:	df5ff06f          	j	c0001a18 <xQueueReceive+0xca>
    c0001c28:	fe843503          	ld	a0,-24(s0)
    c0001c2c:	7406                	ld	s0,96(sp)
    c0001c2e:	70a6                	ld	ra,104(sp)
    c0001c30:	6165                	addi	sp,sp,112
    c0001c32:	8082                	ret

00000000c0001c34 <prvCopyDataFromQueue>:
    c0001c34:	7179                	addi	sp,sp,-48
    c0001c36:	f406                	sd	ra,40(sp)
    c0001c38:	f022                	sd	s0,32(sp)
    c0001c3a:	1800                	addi	s0,sp,48
    c0001c3c:	fea43423          	sd	a0,-24(s0)
    c0001c40:	feb43023          	sd	a1,-32(s0)
    c0001c44:	fe843503          	ld	a0,-24(s0)
    c0001c48:	6148                	ld	a0,128(a0)
    c0001c4a:	4581                	li	a1,0
    c0001c4c:	04b50b63          	beq	a0,a1,c0001ca2 <prvCopyDataFromQueue+0x6e>
    c0001c50:	0040006f          	j	c0001c54 <prvCopyDataFromQueue+0x20>
    c0001c54:	fe843503          	ld	a0,-24(s0)
    c0001c58:	614c                	ld	a1,128(a0)
    c0001c5a:	6d10                	ld	a2,24(a0)
    c0001c5c:	95b2                	add	a1,a1,a2
    c0001c5e:	ed0c                	sd	a1,24(a0)
    c0001c60:	fe843503          	ld	a0,-24(s0)
    c0001c64:	6d0c                	ld	a1,24(a0)
    c0001c66:	6908                	ld	a0,16(a0)
    c0001c68:	00a5ea63          	bltu	a1,a0,c0001c7c <prvCopyDataFromQueue+0x48>
    c0001c6c:	0040006f          	j	c0001c70 <prvCopyDataFromQueue+0x3c>
    c0001c70:	fe843503          	ld	a0,-24(s0)
    c0001c74:	610c                	ld	a1,0(a0)
    c0001c76:	ed0c                	sd	a1,24(a0)
    c0001c78:	0080006f          	j	c0001c80 <prvCopyDataFromQueue+0x4c>
    c0001c7c:	0040006f          	j	c0001c80 <prvCopyDataFromQueue+0x4c>
    c0001c80:	fe043503          	ld	a0,-32(s0)
    c0001c84:	fe843583          	ld	a1,-24(s0)
    c0001c88:	6d90                	ld	a2,24(a1)
    c0001c8a:	61cc                	ld	a1,128(a1)
    c0001c8c:	fcb43c23          	sd	a1,-40(s0)
    c0001c90:	85b2                	mv	a1,a2
    c0001c92:	fd843603          	ld	a2,-40(s0)
    c0001c96:	00009097          	auipc	ra,0x9
    c0001c9a:	04e080e7          	jalr	78(ra) # c000ace4 <memcpy>
    c0001c9e:	0040006f          	j	c0001ca2 <prvCopyDataFromQueue+0x6e>
    c0001ca2:	7402                	ld	s0,32(sp)
    c0001ca4:	70a2                	ld	ra,40(sp)
    c0001ca6:	6145                	addi	sp,sp,48
    c0001ca8:	8082                	ret

00000000c0001caa <prvIsQueueEmpty>:
    c0001caa:	1101                	addi	sp,sp,-32
    c0001cac:	ec06                	sd	ra,24(sp)
    c0001cae:	e822                	sd	s0,16(sp)
    c0001cb0:	1000                	addi	s0,sp,32
    c0001cb2:	fea43423          	sd	a0,-24(s0)
    c0001cb6:	00001097          	auipc	ra,0x1
    c0001cba:	06c080e7          	jalr	108(ra) # c0002d22 <vTaskEnterCritical>
    c0001cbe:	fe843503          	ld	a0,-24(s0)
    c0001cc2:	7928                	ld	a0,112(a0)
    c0001cc4:	4581                	li	a1,0
    c0001cc6:	00b51963          	bne	a0,a1,c0001cd8 <prvIsQueueEmpty+0x2e>
    c0001cca:	0040006f          	j	c0001cce <prvIsQueueEmpty+0x24>
    c0001cce:	4505                	li	a0,1
    c0001cd0:	fea43023          	sd	a0,-32(s0)
    c0001cd4:	00e0006f          	j	c0001ce2 <prvIsQueueEmpty+0x38>
    c0001cd8:	4501                	li	a0,0
    c0001cda:	fea43023          	sd	a0,-32(s0)
    c0001cde:	0040006f          	j	c0001ce2 <prvIsQueueEmpty+0x38>
    c0001ce2:	00001097          	auipc	ra,0x1
    c0001ce6:	11c080e7          	jalr	284(ra) # c0002dfe <vTaskExitCritical>
    c0001cea:	fe043503          	ld	a0,-32(s0)
    c0001cee:	6442                	ld	s0,16(sp)
    c0001cf0:	60e2                	ld	ra,24(sp)
    c0001cf2:	6105                	addi	sp,sp,32
    c0001cf4:	8082                	ret

00000000c0001cf6 <prvGetDisinheritPriorityAfterTimeout>:
    c0001cf6:	1101                	addi	sp,sp,-32
    c0001cf8:	ec06                	sd	ra,24(sp)
    c0001cfa:	e822                	sd	s0,16(sp)
    c0001cfc:	1000                	addi	s0,sp,32
    c0001cfe:	fea43423          	sd	a0,-24(s0)
    c0001d02:	fe843503          	ld	a0,-24(s0)
    c0001d06:	6528                	ld	a0,72(a0)
    c0001d08:	4581                	li	a1,0
    c0001d0a:	00b50f63          	beq	a0,a1,c0001d28 <prvGetDisinheritPriorityAfterTimeout+0x32>
    c0001d0e:	0040006f          	j	c0001d12 <prvGetDisinheritPriorityAfterTimeout+0x1c>
    c0001d12:	fe843503          	ld	a0,-24(s0)
    c0001d16:	7128                	ld	a0,96(a0)
    c0001d18:	6108                	ld	a0,0(a0)
    c0001d1a:	4595                	li	a1,5
    c0001d1c:	40a58533          	sub	a0,a1,a0
    c0001d20:	fea43023          	sd	a0,-32(s0)
    c0001d24:	00e0006f          	j	c0001d32 <prvGetDisinheritPriorityAfterTimeout+0x3c>
    c0001d28:	4501                	li	a0,0
    c0001d2a:	fea43023          	sd	a0,-32(s0)
    c0001d2e:	0040006f          	j	c0001d32 <prvGetDisinheritPriorityAfterTimeout+0x3c>
    c0001d32:	fe043503          	ld	a0,-32(s0)
    c0001d36:	6442                	ld	s0,16(sp)
    c0001d38:	60e2                	ld	ra,24(sp)
    c0001d3a:	6105                	addi	sp,sp,32
    c0001d3c:	8082                	ret

00000000c0001d3e <xQueuePeek>:
    c0001d3e:	7119                	addi	sp,sp,-128
    c0001d40:	fc86                	sd	ra,120(sp)
    c0001d42:	f8a2                	sd	s0,112(sp)
    c0001d44:	0100                	addi	s0,sp,128
    c0001d46:	fea43023          	sd	a0,-32(s0)
    c0001d4a:	fcb43c23          	sd	a1,-40(s0)
    c0001d4e:	fcc43823          	sd	a2,-48(s0)
    c0001d52:	4501                	li	a0,0
    c0001d54:	fca43423          	sd	a0,-56(s0)
    c0001d58:	fe043583          	ld	a1,-32(s0)
    c0001d5c:	fab43423          	sd	a1,-88(s0)
    c0001d60:	fa843583          	ld	a1,-88(s0)
    c0001d64:	00a59b63          	bne	a1,a0,c0001d7a <xQueuePeek+0x3c>
    c0001d68:	0040006f          	j	c0001d6c <xQueuePeek+0x2e>
    c0001d6c:	30047073          	csrci	mstatus,8
    c0001d70:	9002                	ebreak
    c0001d72:	0040006f          	j	c0001d76 <xQueuePeek+0x38>
    c0001d76:	0000006f          	j	c0001d76 <xQueuePeek+0x38>
    c0001d7a:	fd843503          	ld	a0,-40(s0)
    c0001d7e:	4581                	li	a1,0
    c0001d80:	862e                	mv	a2,a1
    c0001d82:	f8c43c23          	sd	a2,-104(s0)
    c0001d86:	00b51d63          	bne	a0,a1,c0001da0 <xQueuePeek+0x62>
    c0001d8a:	0040006f          	j	c0001d8e <xQueuePeek+0x50>
    c0001d8e:	fa843503          	ld	a0,-88(s0)
    c0001d92:	6148                	ld	a0,128(a0)
    c0001d94:	00a03533          	snez	a0,a0
    c0001d98:	f8a43c23          	sd	a0,-104(s0)
    c0001d9c:	0040006f          	j	c0001da0 <xQueuePeek+0x62>
    c0001da0:	f9843503          	ld	a0,-104(s0)
    c0001da4:	8905                	andi	a0,a0,1
    c0001da6:	4581                	li	a1,0
    c0001da8:	00b50b63          	beq	a0,a1,c0001dbe <xQueuePeek+0x80>
    c0001dac:	0040006f          	j	c0001db0 <xQueuePeek+0x72>
    c0001db0:	30047073          	csrci	mstatus,8
    c0001db4:	9002                	ebreak
    c0001db6:	0040006f          	j	c0001dba <xQueuePeek+0x7c>
    c0001dba:	0000006f          	j	c0001dba <xQueuePeek+0x7c>
    c0001dbe:	00003097          	auipc	ra,0x3
    c0001dc2:	78a080e7          	jalr	1930(ra) # c0005548 <xTaskGetSchedulerState>
    c0001dc6:	4581                	li	a1,0
    c0001dc8:	862e                	mv	a2,a1
    c0001dca:	f8c43823          	sd	a2,-112(s0)
    c0001dce:	00b51c63          	bne	a0,a1,c0001de6 <xQueuePeek+0xa8>
    c0001dd2:	0040006f          	j	c0001dd6 <xQueuePeek+0x98>
    c0001dd6:	fd043503          	ld	a0,-48(s0)
    c0001dda:	00a03533          	snez	a0,a0
    c0001dde:	f8a43823          	sd	a0,-112(s0)
    c0001de2:	0040006f          	j	c0001de6 <xQueuePeek+0xa8>
    c0001de6:	f9043503          	ld	a0,-112(s0)
    c0001dea:	8905                	andi	a0,a0,1
    c0001dec:	4581                	li	a1,0
    c0001dee:	00b50b63          	beq	a0,a1,c0001e04 <xQueuePeek+0xc6>
    c0001df2:	0040006f          	j	c0001df6 <xQueuePeek+0xb8>
    c0001df6:	30047073          	csrci	mstatus,8
    c0001dfa:	9002                	ebreak
    c0001dfc:	0040006f          	j	c0001e00 <xQueuePeek+0xc2>
    c0001e00:	0000006f          	j	c0001e00 <xQueuePeek+0xc2>
    c0001e04:	0040006f          	j	c0001e08 <xQueuePeek+0xca>
    c0001e08:	00001097          	auipc	ra,0x1
    c0001e0c:	f1a080e7          	jalr	-230(ra) # c0002d22 <vTaskEnterCritical>
    c0001e10:	fa843503          	ld	a0,-88(s0)
    c0001e14:	7928                	ld	a0,112(a0)
    c0001e16:	faa43023          	sd	a0,-96(s0)
    c0001e1a:	fa043503          	ld	a0,-96(s0)
    c0001e1e:	4581                	li	a1,0
    c0001e20:	06b50e63          	beq	a0,a1,c0001e9c <xQueuePeek+0x15e>
    c0001e24:	0040006f          	j	c0001e28 <xQueuePeek+0xea>
    c0001e28:	fa843503          	ld	a0,-88(s0)
    c0001e2c:	6d08                	ld	a0,24(a0)
    c0001e2e:	faa43823          	sd	a0,-80(s0)
    c0001e32:	fa843503          	ld	a0,-88(s0)
    c0001e36:	fd843583          	ld	a1,-40(s0)
    c0001e3a:	00000097          	auipc	ra,0x0
    c0001e3e:	dfa080e7          	jalr	-518(ra) # c0001c34 <prvCopyDataFromQueue>
    c0001e42:	fb043503          	ld	a0,-80(s0)
    c0001e46:	fa843583          	ld	a1,-88(s0)
    c0001e4a:	ed88                	sd	a0,24(a1)
    c0001e4c:	fa843503          	ld	a0,-88(s0)
    c0001e50:	6528                	ld	a0,72(a0)
    c0001e52:	4581                	li	a1,0
    c0001e54:	02b50963          	beq	a0,a1,c0001e86 <xQueuePeek+0x148>
    c0001e58:	0040006f          	j	c0001e5c <xQueuePeek+0x11e>
    c0001e5c:	fa843503          	ld	a0,-88(s0)
    c0001e60:	04850513          	addi	a0,a0,72
    c0001e64:	00003097          	auipc	ra,0x3
    c0001e68:	ffa080e7          	jalr	-6(ra) # c0004e5e <xTaskRemoveFromEventList>
    c0001e6c:	4581                	li	a1,0
    c0001e6e:	00b50863          	beq	a0,a1,c0001e7e <xQueuePeek+0x140>
    c0001e72:	0040006f          	j	c0001e76 <xQueuePeek+0x138>
    c0001e76:	00000073          	ecall
    c0001e7a:	0080006f          	j	c0001e82 <xQueuePeek+0x144>
    c0001e7e:	0040006f          	j	c0001e82 <xQueuePeek+0x144>
    c0001e82:	0080006f          	j	c0001e8a <xQueuePeek+0x14c>
    c0001e86:	0040006f          	j	c0001e8a <xQueuePeek+0x14c>
    c0001e8a:	00001097          	auipc	ra,0x1
    c0001e8e:	f74080e7          	jalr	-140(ra) # c0002dfe <vTaskExitCritical>
    c0001e92:	4505                	li	a0,1
    c0001e94:	fea43423          	sd	a0,-24(s0)
    c0001e98:	1880006f          	j	c0002020 <xQueuePeek+0x2e2>
    c0001e9c:	fd043503          	ld	a0,-48(s0)
    c0001ea0:	4581                	li	a1,0
    c0001ea2:	00b51d63          	bne	a0,a1,c0001ebc <xQueuePeek+0x17e>
    c0001ea6:	0040006f          	j	c0001eaa <xQueuePeek+0x16c>
    c0001eaa:	00001097          	auipc	ra,0x1
    c0001eae:	f54080e7          	jalr	-172(ra) # c0002dfe <vTaskExitCritical>
    c0001eb2:	4501                	li	a0,0
    c0001eb4:	fea43423          	sd	a0,-24(s0)
    c0001eb8:	1680006f          	j	c0002020 <xQueuePeek+0x2e2>
    c0001ebc:	fc843503          	ld	a0,-56(s0)
    c0001ec0:	4581                	li	a1,0
    c0001ec2:	00b51f63          	bne	a0,a1,c0001ee0 <xQueuePeek+0x1a2>
    c0001ec6:	0040006f          	j	c0001eca <xQueuePeek+0x18c>
    c0001eca:	fb840513          	addi	a0,s0,-72
    c0001ece:	00003097          	auipc	ra,0x3
    c0001ed2:	1f8080e7          	jalr	504(ra) # c00050c6 <vTaskInternalSetTimeOutState>
    c0001ed6:	4505                	li	a0,1
    c0001ed8:	fca43423          	sd	a0,-56(s0)
    c0001edc:	0080006f          	j	c0001ee4 <xQueuePeek+0x1a6>
    c0001ee0:	0040006f          	j	c0001ee4 <xQueuePeek+0x1a6>
    c0001ee4:	0040006f          	j	c0001ee8 <xQueuePeek+0x1aa>
    c0001ee8:	0040006f          	j	c0001eec <xQueuePeek+0x1ae>
    c0001eec:	00001097          	auipc	ra,0x1
    c0001ef0:	f12080e7          	jalr	-238(ra) # c0002dfe <vTaskExitCritical>
    c0001ef4:	00001097          	auipc	ra,0x1
    c0001ef8:	0ee080e7          	jalr	238(ra) # c0002fe2 <vTaskSuspendAll>
    c0001efc:	00001097          	auipc	ra,0x1
    c0001f00:	e26080e7          	jalr	-474(ra) # c0002d22 <vTaskEnterCritical>
    c0001f04:	fa843503          	ld	a0,-88(s0)
    c0001f08:	08850503          	lb	a0,136(a0)
    c0001f0c:	55fd                	li	a1,-1
    c0001f0e:	00b51b63          	bne	a0,a1,c0001f24 <xQueuePeek+0x1e6>
    c0001f12:	0040006f          	j	c0001f16 <xQueuePeek+0x1d8>
    c0001f16:	fa843503          	ld	a0,-88(s0)
    c0001f1a:	4581                	li	a1,0
    c0001f1c:	08b50423          	sb	a1,136(a0)
    c0001f20:	0040006f          	j	c0001f24 <xQueuePeek+0x1e6>
    c0001f24:	fa843503          	ld	a0,-88(s0)
    c0001f28:	08950503          	lb	a0,137(a0)
    c0001f2c:	55fd                	li	a1,-1
    c0001f2e:	00b51b63          	bne	a0,a1,c0001f44 <xQueuePeek+0x206>
    c0001f32:	0040006f          	j	c0001f36 <xQueuePeek+0x1f8>
    c0001f36:	fa843503          	ld	a0,-88(s0)
    c0001f3a:	4581                	li	a1,0
    c0001f3c:	08b504a3          	sb	a1,137(a0)
    c0001f40:	0040006f          	j	c0001f44 <xQueuePeek+0x206>
    c0001f44:	00001097          	auipc	ra,0x1
    c0001f48:	eba080e7          	jalr	-326(ra) # c0002dfe <vTaskExitCritical>
    c0001f4c:	fb840513          	addi	a0,s0,-72
    c0001f50:	fd040593          	addi	a1,s0,-48
    c0001f54:	00003097          	auipc	ra,0x3
    c0001f58:	1a6080e7          	jalr	422(ra) # c00050fa <xTaskCheckForTimeOut>
    c0001f5c:	4581                	li	a1,0
    c0001f5e:	06b51e63          	bne	a0,a1,c0001fda <xQueuePeek+0x29c>
    c0001f62:	0040006f          	j	c0001f66 <xQueuePeek+0x228>
    c0001f66:	fa843503          	ld	a0,-88(s0)
    c0001f6a:	00000097          	auipc	ra,0x0
    c0001f6e:	d40080e7          	jalr	-704(ra) # c0001caa <prvIsQueueEmpty>
    c0001f72:	4581                	li	a1,0
    c0001f74:	04b50563          	beq	a0,a1,c0001fbe <xQueuePeek+0x280>
    c0001f78:	0040006f          	j	c0001f7c <xQueuePeek+0x23e>
    c0001f7c:	fa843503          	ld	a0,-88(s0)
    c0001f80:	04850513          	addi	a0,a0,72
    c0001f84:	fd043583          	ld	a1,-48(s0)
    c0001f88:	00003097          	auipc	ra,0x3
    c0001f8c:	d66080e7          	jalr	-666(ra) # c0004cee <vTaskPlaceOnEventList>
    c0001f90:	fa843503          	ld	a0,-88(s0)
    c0001f94:	fffff097          	auipc	ra,0xfffff
    c0001f98:	57a080e7          	jalr	1402(ra) # c000150e <prvUnlockQueue>
    c0001f9c:	00001097          	auipc	ra,0x1
    c0001fa0:	1c2080e7          	jalr	450(ra) # c000315e <xTaskResumeAll>
    c0001fa4:	4581                	li	a1,0
    c0001fa6:	00b51863          	bne	a0,a1,c0001fb6 <xQueuePeek+0x278>
    c0001faa:	0040006f          	j	c0001fae <xQueuePeek+0x270>
    c0001fae:	00000073          	ecall
    c0001fb2:	0080006f          	j	c0001fba <xQueuePeek+0x27c>
    c0001fb6:	0040006f          	j	c0001fba <xQueuePeek+0x27c>
    c0001fba:	01c0006f          	j	c0001fd6 <xQueuePeek+0x298>
    c0001fbe:	fa843503          	ld	a0,-88(s0)
    c0001fc2:	fffff097          	auipc	ra,0xfffff
    c0001fc6:	54c080e7          	jalr	1356(ra) # c000150e <prvUnlockQueue>
    c0001fca:	00001097          	auipc	ra,0x1
    c0001fce:	194080e7          	jalr	404(ra) # c000315e <xTaskResumeAll>
    c0001fd2:	0040006f          	j	c0001fd6 <xQueuePeek+0x298>
    c0001fd6:	0460006f          	j	c000201c <xQueuePeek+0x2de>
    c0001fda:	fa843503          	ld	a0,-88(s0)
    c0001fde:	fffff097          	auipc	ra,0xfffff
    c0001fe2:	530080e7          	jalr	1328(ra) # c000150e <prvUnlockQueue>
    c0001fe6:	00001097          	auipc	ra,0x1
    c0001fea:	178080e7          	jalr	376(ra) # c000315e <xTaskResumeAll>
    c0001fee:	fa843583          	ld	a1,-88(s0)
    c0001ff2:	f8a43423          	sd	a0,-120(s0)
    c0001ff6:	852e                	mv	a0,a1
    c0001ff8:	00000097          	auipc	ra,0x0
    c0001ffc:	cb2080e7          	jalr	-846(ra) # c0001caa <prvIsQueueEmpty>
    c0002000:	4581                	li	a1,0
    c0002002:	00b50963          	beq	a0,a1,c0002014 <xQueuePeek+0x2d6>
    c0002006:	0040006f          	j	c000200a <xQueuePeek+0x2cc>
    c000200a:	4501                	li	a0,0
    c000200c:	fea43423          	sd	a0,-24(s0)
    c0002010:	0100006f          	j	c0002020 <xQueuePeek+0x2e2>
    c0002014:	0040006f          	j	c0002018 <xQueuePeek+0x2da>
    c0002018:	0040006f          	j	c000201c <xQueuePeek+0x2de>
    c000201c:	dedff06f          	j	c0001e08 <xQueuePeek+0xca>
    c0002020:	fe843503          	ld	a0,-24(s0)
    c0002024:	7446                	ld	s0,112(sp)
    c0002026:	70e6                	ld	ra,120(sp)
    c0002028:	6109                	addi	sp,sp,128
    c000202a:	8082                	ret

00000000c000202c <xQueueReceiveFromISR>:
    c000202c:	711d                	addi	sp,sp,-96
    c000202e:	ec86                	sd	ra,88(sp)
    c0002030:	e8a2                	sd	s0,80(sp)
    c0002032:	1080                	addi	s0,sp,96
    c0002034:	fea43423          	sd	a0,-24(s0)
    c0002038:	feb43023          	sd	a1,-32(s0)
    c000203c:	fcc43c23          	sd	a2,-40(s0)
    c0002040:	fe843503          	ld	a0,-24(s0)
    c0002044:	fca43023          	sd	a0,-64(s0)
    c0002048:	fc043503          	ld	a0,-64(s0)
    c000204c:	4581                	li	a1,0
    c000204e:	00b51b63          	bne	a0,a1,c0002064 <xQueueReceiveFromISR+0x38>
    c0002052:	0040006f          	j	c0002056 <xQueueReceiveFromISR+0x2a>
    c0002056:	30047073          	csrci	mstatus,8
    c000205a:	9002                	ebreak
    c000205c:	0040006f          	j	c0002060 <xQueueReceiveFromISR+0x34>
    c0002060:	0000006f          	j	c0002060 <xQueueReceiveFromISR+0x34>
    c0002064:	fe043503          	ld	a0,-32(s0)
    c0002068:	4581                	li	a1,0
    c000206a:	862e                	mv	a2,a1
    c000206c:	fac43423          	sd	a2,-88(s0)
    c0002070:	00b51d63          	bne	a0,a1,c000208a <xQueueReceiveFromISR+0x5e>
    c0002074:	0040006f          	j	c0002078 <xQueueReceiveFromISR+0x4c>
    c0002078:	fc043503          	ld	a0,-64(s0)
    c000207c:	6148                	ld	a0,128(a0)
    c000207e:	00a03533          	snez	a0,a0
    c0002082:	faa43423          	sd	a0,-88(s0)
    c0002086:	0040006f          	j	c000208a <xQueueReceiveFromISR+0x5e>
    c000208a:	fa843503          	ld	a0,-88(s0)
    c000208e:	8905                	andi	a0,a0,1
    c0002090:	4581                	li	a1,0
    c0002092:	00b50b63          	beq	a0,a1,c00020a8 <xQueueReceiveFromISR+0x7c>
    c0002096:	0040006f          	j	c000209a <xQueueReceiveFromISR+0x6e>
    c000209a:	30047073          	csrci	mstatus,8
    c000209e:	9002                	ebreak
    c00020a0:	0040006f          	j	c00020a4 <xQueueReceiveFromISR+0x78>
    c00020a4:	0000006f          	j	c00020a4 <xQueueReceiveFromISR+0x78>
    c00020a8:	4501                	li	a0,0
    c00020aa:	fca43423          	sd	a0,-56(s0)
    c00020ae:	fc043583          	ld	a1,-64(s0)
    c00020b2:	79ac                	ld	a1,112(a1)
    c00020b4:	fab43c23          	sd	a1,-72(s0)
    c00020b8:	fb843583          	ld	a1,-72(s0)
    c00020bc:	0aa58b63          	beq	a1,a0,c0002172 <xQueueReceiveFromISR+0x146>
    c00020c0:	0040006f          	j	c00020c4 <xQueueReceiveFromISR+0x98>
    c00020c4:	fc043503          	ld	a0,-64(s0)
    c00020c8:	08850503          	lb	a0,136(a0)
    c00020cc:	faa40ba3          	sb	a0,-73(s0)
    c00020d0:	fc043503          	ld	a0,-64(s0)
    c00020d4:	fe043583          	ld	a1,-32(s0)
    c00020d8:	00000097          	auipc	ra,0x0
    c00020dc:	b5c080e7          	jalr	-1188(ra) # c0001c34 <prvCopyDataFromQueue>
    c00020e0:	fb843503          	ld	a0,-72(s0)
    c00020e4:	157d                	addi	a0,a0,-1
    c00020e6:	fc043583          	ld	a1,-64(s0)
    c00020ea:	f9a8                	sd	a0,112(a1)
    c00020ec:	fb740503          	lb	a0,-73(s0)
    c00020f0:	55fd                	li	a1,-1
    c00020f2:	06b51263          	bne	a0,a1,c0002156 <xQueueReceiveFromISR+0x12a>
    c00020f6:	0040006f          	j	c00020fa <xQueueReceiveFromISR+0xce>
    c00020fa:	fc043503          	ld	a0,-64(s0)
    c00020fe:	7108                	ld	a0,32(a0)
    c0002100:	4581                	li	a1,0
    c0002102:	04b50663          	beq	a0,a1,c000214e <xQueueReceiveFromISR+0x122>
    c0002106:	0040006f          	j	c000210a <xQueueReceiveFromISR+0xde>
    c000210a:	fc043503          	ld	a0,-64(s0)
    c000210e:	02050513          	addi	a0,a0,32
    c0002112:	00003097          	auipc	ra,0x3
    c0002116:	d4c080e7          	jalr	-692(ra) # c0004e5e <xTaskRemoveFromEventList>
    c000211a:	4581                	li	a1,0
    c000211c:	02b50563          	beq	a0,a1,c0002146 <xQueueReceiveFromISR+0x11a>
    c0002120:	0040006f          	j	c0002124 <xQueueReceiveFromISR+0xf8>
    c0002124:	fd843503          	ld	a0,-40(s0)
    c0002128:	4581                	li	a1,0
    c000212a:	00b50a63          	beq	a0,a1,c000213e <xQueueReceiveFromISR+0x112>
    c000212e:	0040006f          	j	c0002132 <xQueueReceiveFromISR+0x106>
    c0002132:	fd843503          	ld	a0,-40(s0)
    c0002136:	4585                	li	a1,1
    c0002138:	e10c                	sd	a1,0(a0)
    c000213a:	0080006f          	j	c0002142 <xQueueReceiveFromISR+0x116>
    c000213e:	0040006f          	j	c0002142 <xQueueReceiveFromISR+0x116>
    c0002142:	0080006f          	j	c000214a <xQueueReceiveFromISR+0x11e>
    c0002146:	0040006f          	j	c000214a <xQueueReceiveFromISR+0x11e>
    c000214a:	0080006f          	j	c0002152 <xQueueReceiveFromISR+0x126>
    c000214e:	0040006f          	j	c0002152 <xQueueReceiveFromISR+0x126>
    c0002152:	0160006f          	j	c0002168 <xQueueReceiveFromISR+0x13c>
    c0002156:	fb740503          	lb	a0,-73(s0)
    c000215a:	0505                	addi	a0,a0,1
    c000215c:	fc043583          	ld	a1,-64(s0)
    c0002160:	08a58423          	sb	a0,136(a1)
    c0002164:	0040006f          	j	c0002168 <xQueueReceiveFromISR+0x13c>
    c0002168:	4505                	li	a0,1
    c000216a:	fca43823          	sd	a0,-48(s0)
    c000216e:	00e0006f          	j	c000217c <xQueueReceiveFromISR+0x150>
    c0002172:	4501                	li	a0,0
    c0002174:	fca43823          	sd	a0,-48(s0)
    c0002178:	0040006f          	j	c000217c <xQueueReceiveFromISR+0x150>
    c000217c:	fd043503          	ld	a0,-48(s0)
    c0002180:	6446                	ld	s0,80(sp)
    c0002182:	60e6                	ld	ra,88(sp)
    c0002184:	6125                	addi	sp,sp,96
    c0002186:	8082                	ret

00000000c0002188 <xQueuePeekFromISR>:
    c0002188:	715d                	addi	sp,sp,-80
    c000218a:	e486                	sd	ra,72(sp)
    c000218c:	e0a2                	sd	s0,64(sp)
    c000218e:	0880                	addi	s0,sp,80
    c0002190:	fea43423          	sd	a0,-24(s0)
    c0002194:	feb43023          	sd	a1,-32(s0)
    c0002198:	fe843503          	ld	a0,-24(s0)
    c000219c:	fca43023          	sd	a0,-64(s0)
    c00021a0:	fc043503          	ld	a0,-64(s0)
    c00021a4:	4581                	li	a1,0
    c00021a6:	00b51b63          	bne	a0,a1,c00021bc <xQueuePeekFromISR+0x34>
    c00021aa:	0040006f          	j	c00021ae <xQueuePeekFromISR+0x26>
    c00021ae:	30047073          	csrci	mstatus,8
    c00021b2:	9002                	ebreak
    c00021b4:	0040006f          	j	c00021b8 <xQueuePeekFromISR+0x30>
    c00021b8:	0000006f          	j	c00021b8 <xQueuePeekFromISR+0x30>
    c00021bc:	fe043503          	ld	a0,-32(s0)
    c00021c0:	4581                	li	a1,0
    c00021c2:	862e                	mv	a2,a1
    c00021c4:	fac43c23          	sd	a2,-72(s0)
    c00021c8:	00b51d63          	bne	a0,a1,c00021e2 <xQueuePeekFromISR+0x5a>
    c00021cc:	0040006f          	j	c00021d0 <xQueuePeekFromISR+0x48>
    c00021d0:	fc043503          	ld	a0,-64(s0)
    c00021d4:	6148                	ld	a0,128(a0)
    c00021d6:	00a03533          	snez	a0,a0
    c00021da:	faa43c23          	sd	a0,-72(s0)
    c00021de:	0040006f          	j	c00021e2 <xQueuePeekFromISR+0x5a>
    c00021e2:	fb843503          	ld	a0,-72(s0)
    c00021e6:	8905                	andi	a0,a0,1
    c00021e8:	4581                	li	a1,0
    c00021ea:	00b50b63          	beq	a0,a1,c0002200 <xQueuePeekFromISR+0x78>
    c00021ee:	0040006f          	j	c00021f2 <xQueuePeekFromISR+0x6a>
    c00021f2:	30047073          	csrci	mstatus,8
    c00021f6:	9002                	ebreak
    c00021f8:	0040006f          	j	c00021fc <xQueuePeekFromISR+0x74>
    c00021fc:	0000006f          	j	c00021fc <xQueuePeekFromISR+0x74>
    c0002200:	fc043503          	ld	a0,-64(s0)
    c0002204:	6148                	ld	a0,128(a0)
    c0002206:	4581                	li	a1,0
    c0002208:	00b51b63          	bne	a0,a1,c000221e <xQueuePeekFromISR+0x96>
    c000220c:	0040006f          	j	c0002210 <xQueuePeekFromISR+0x88>
    c0002210:	30047073          	csrci	mstatus,8
    c0002214:	9002                	ebreak
    c0002216:	0040006f          	j	c000221a <xQueuePeekFromISR+0x92>
    c000221a:	0000006f          	j	c000221a <xQueuePeekFromISR+0x92>
    c000221e:	4501                	li	a0,0
    c0002220:	fca43823          	sd	a0,-48(s0)
    c0002224:	fc043583          	ld	a1,-64(s0)
    c0002228:	79ac                	ld	a1,112(a1)
    c000222a:	02a58b63          	beq	a1,a0,c0002260 <xQueuePeekFromISR+0xd8>
    c000222e:	0040006f          	j	c0002232 <xQueuePeekFromISR+0xaa>
    c0002232:	fc043503          	ld	a0,-64(s0)
    c0002236:	6d08                	ld	a0,24(a0)
    c0002238:	fca43423          	sd	a0,-56(s0)
    c000223c:	fc043503          	ld	a0,-64(s0)
    c0002240:	fe043583          	ld	a1,-32(s0)
    c0002244:	00000097          	auipc	ra,0x0
    c0002248:	9f0080e7          	jalr	-1552(ra) # c0001c34 <prvCopyDataFromQueue>
    c000224c:	fc843503          	ld	a0,-56(s0)
    c0002250:	fc043583          	ld	a1,-64(s0)
    c0002254:	ed88                	sd	a0,24(a1)
    c0002256:	4505                	li	a0,1
    c0002258:	fca43c23          	sd	a0,-40(s0)
    c000225c:	00e0006f          	j	c000226a <xQueuePeekFromISR+0xe2>
    c0002260:	4501                	li	a0,0
    c0002262:	fca43c23          	sd	a0,-40(s0)
    c0002266:	0040006f          	j	c000226a <xQueuePeekFromISR+0xe2>
    c000226a:	fd843503          	ld	a0,-40(s0)
    c000226e:	6406                	ld	s0,64(sp)
    c0002270:	60a6                	ld	ra,72(sp)
    c0002272:	6161                	addi	sp,sp,80
    c0002274:	8082                	ret

00000000c0002276 <uxQueueMessagesWaiting>:
    c0002276:	1101                	addi	sp,sp,-32
    c0002278:	ec06                	sd	ra,24(sp)
    c000227a:	e822                	sd	s0,16(sp)
    c000227c:	1000                	addi	s0,sp,32
    c000227e:	fea43423          	sd	a0,-24(s0)
    c0002282:	fe843503          	ld	a0,-24(s0)
    c0002286:	4581                	li	a1,0
    c0002288:	00b51b63          	bne	a0,a1,c000229e <uxQueueMessagesWaiting+0x28>
    c000228c:	0040006f          	j	c0002290 <uxQueueMessagesWaiting+0x1a>
    c0002290:	30047073          	csrci	mstatus,8
    c0002294:	9002                	ebreak
    c0002296:	0040006f          	j	c000229a <uxQueueMessagesWaiting+0x24>
    c000229a:	0000006f          	j	c000229a <uxQueueMessagesWaiting+0x24>
    c000229e:	00001097          	auipc	ra,0x1
    c00022a2:	a84080e7          	jalr	-1404(ra) # c0002d22 <vTaskEnterCritical>
    c00022a6:	fe843503          	ld	a0,-24(s0)
    c00022aa:	7928                	ld	a0,112(a0)
    c00022ac:	fea43023          	sd	a0,-32(s0)
    c00022b0:	00001097          	auipc	ra,0x1
    c00022b4:	b4e080e7          	jalr	-1202(ra) # c0002dfe <vTaskExitCritical>
    c00022b8:	fe043503          	ld	a0,-32(s0)
    c00022bc:	6442                	ld	s0,16(sp)
    c00022be:	60e2                	ld	ra,24(sp)
    c00022c0:	6105                	addi	sp,sp,32
    c00022c2:	8082                	ret

00000000c00022c4 <uxQueueSpacesAvailable>:
    c00022c4:	7179                	addi	sp,sp,-48
    c00022c6:	f406                	sd	ra,40(sp)
    c00022c8:	f022                	sd	s0,32(sp)
    c00022ca:	1800                	addi	s0,sp,48
    c00022cc:	fea43423          	sd	a0,-24(s0)
    c00022d0:	fe843503          	ld	a0,-24(s0)
    c00022d4:	fca43c23          	sd	a0,-40(s0)
    c00022d8:	fd843503          	ld	a0,-40(s0)
    c00022dc:	4581                	li	a1,0
    c00022de:	00b51b63          	bne	a0,a1,c00022f4 <uxQueueSpacesAvailable+0x30>
    c00022e2:	0040006f          	j	c00022e6 <uxQueueSpacesAvailable+0x22>
    c00022e6:	30047073          	csrci	mstatus,8
    c00022ea:	9002                	ebreak
    c00022ec:	0040006f          	j	c00022f0 <uxQueueSpacesAvailable+0x2c>
    c00022f0:	0000006f          	j	c00022f0 <uxQueueSpacesAvailable+0x2c>
    c00022f4:	00001097          	auipc	ra,0x1
    c00022f8:	a2e080e7          	jalr	-1490(ra) # c0002d22 <vTaskEnterCritical>
    c00022fc:	fd843503          	ld	a0,-40(s0)
    c0002300:	7d2c                	ld	a1,120(a0)
    c0002302:	7928                	ld	a0,112(a0)
    c0002304:	40a58533          	sub	a0,a1,a0
    c0002308:	fea43023          	sd	a0,-32(s0)
    c000230c:	00001097          	auipc	ra,0x1
    c0002310:	af2080e7          	jalr	-1294(ra) # c0002dfe <vTaskExitCritical>
    c0002314:	fe043503          	ld	a0,-32(s0)
    c0002318:	7402                	ld	s0,32(sp)
    c000231a:	70a2                	ld	ra,40(sp)
    c000231c:	6145                	addi	sp,sp,48
    c000231e:	8082                	ret

00000000c0002320 <uxQueueMessagesWaitingFromISR>:
    c0002320:	7179                	addi	sp,sp,-48
    c0002322:	f406                	sd	ra,40(sp)
    c0002324:	f022                	sd	s0,32(sp)
    c0002326:	1800                	addi	s0,sp,48
    c0002328:	fea43423          	sd	a0,-24(s0)
    c000232c:	fe843503          	ld	a0,-24(s0)
    c0002330:	fca43c23          	sd	a0,-40(s0)
    c0002334:	fd843503          	ld	a0,-40(s0)
    c0002338:	4581                	li	a1,0
    c000233a:	00b51b63          	bne	a0,a1,c0002350 <uxQueueMessagesWaitingFromISR+0x30>
    c000233e:	0040006f          	j	c0002342 <uxQueueMessagesWaitingFromISR+0x22>
    c0002342:	30047073          	csrci	mstatus,8
    c0002346:	9002                	ebreak
    c0002348:	0040006f          	j	c000234c <uxQueueMessagesWaitingFromISR+0x2c>
    c000234c:	0000006f          	j	c000234c <uxQueueMessagesWaitingFromISR+0x2c>
    c0002350:	fd843503          	ld	a0,-40(s0)
    c0002354:	7928                	ld	a0,112(a0)
    c0002356:	fea43023          	sd	a0,-32(s0)
    c000235a:	fe043503          	ld	a0,-32(s0)
    c000235e:	7402                	ld	s0,32(sp)
    c0002360:	70a2                	ld	ra,40(sp)
    c0002362:	6145                	addi	sp,sp,48
    c0002364:	8082                	ret

00000000c0002366 <vQueueDelete>:
    c0002366:	1101                	addi	sp,sp,-32
    c0002368:	ec06                	sd	ra,24(sp)
    c000236a:	e822                	sd	s0,16(sp)
    c000236c:	1000                	addi	s0,sp,32
    c000236e:	fea43423          	sd	a0,-24(s0)
    c0002372:	fe843503          	ld	a0,-24(s0)
    c0002376:	fea43023          	sd	a0,-32(s0)
    c000237a:	fe043503          	ld	a0,-32(s0)
    c000237e:	4581                	li	a1,0
    c0002380:	00b51b63          	bne	a0,a1,c0002396 <vQueueDelete+0x30>
    c0002384:	0040006f          	j	c0002388 <vQueueDelete+0x22>
    c0002388:	30047073          	csrci	mstatus,8
    c000238c:	9002                	ebreak
    c000238e:	0040006f          	j	c0002392 <vQueueDelete+0x2c>
    c0002392:	0000006f          	j	c0002392 <vQueueDelete+0x2c>
    c0002396:	fe043503          	ld	a0,-32(s0)
    c000239a:	00000097          	auipc	ra,0x0
    c000239e:	01c080e7          	jalr	28(ra) # c00023b6 <vQueueUnregisterQueue>
    c00023a2:	fe043503          	ld	a0,-32(s0)
    c00023a6:	00008097          	auipc	ra,0x8
    c00023aa:	800080e7          	jalr	-2048(ra) # c0009ba6 <vPortFree>
    c00023ae:	6442                	ld	s0,16(sp)
    c00023b0:	60e2                	ld	ra,24(sp)
    c00023b2:	6105                	addi	sp,sp,32
    c00023b4:	8082                	ret

00000000c00023b6 <vQueueUnregisterQueue>:
    c00023b6:	1101                	addi	sp,sp,-32
    c00023b8:	ec06                	sd	ra,24(sp)
    c00023ba:	e822                	sd	s0,16(sp)
    c00023bc:	1000                	addi	s0,sp,32
    c00023be:	fea43423          	sd	a0,-24(s0)
    c00023c2:	4501                	li	a0,0
    c00023c4:	fea43023          	sd	a0,-32(s0)
    c00023c8:	0040006f          	j	c00023cc <vQueueUnregisterQueue+0x16>
    c00023cc:	fe043503          	ld	a0,-32(s0)
    c00023d0:	459d                	li	a1,7
    c00023d2:	04a5ef63          	bltu	a1,a0,c0002430 <.LBB28_9+0x32>
    c00023d6:	0040006f          	j	c00023da <vQueueUnregisterQueue+0x24>
    c00023da:	fe043503          	ld	a0,-32(s0)
    c00023de:	0512                	slli	a0,a0,0x4

00000000c00023e0 <.LBB28_8>:
    c00023e0:	00080597          	auipc	a1,0x80
    c00023e4:	07058593          	addi	a1,a1,112 # c0082450 <xQueueRegistry>
    c00023e8:	952e                	add	a0,a0,a1
    c00023ea:	6508                	ld	a0,8(a0)
    c00023ec:	fe843583          	ld	a1,-24(s0)
    c00023f0:	02b51563          	bne	a0,a1,c000241a <.LBB28_9+0x1c>
    c00023f4:	0040006f          	j	c00023f8 <.LBB28_8+0x18>
    c00023f8:	fe043503          	ld	a0,-32(s0)
    c00023fc:	0512                	slli	a0,a0,0x4

00000000c00023fe <.LBB28_9>:
    c00023fe:	00080597          	auipc	a1,0x80
    c0002402:	05258593          	addi	a1,a1,82 # c0082450 <xQueueRegistry>
    c0002406:	952e                	add	a0,a0,a1
    c0002408:	4601                	li	a2,0
    c000240a:	e110                	sd	a2,0(a0)
    c000240c:	fe043503          	ld	a0,-32(s0)
    c0002410:	0512                	slli	a0,a0,0x4
    c0002412:	952e                	add	a0,a0,a1
    c0002414:	e510                	sd	a2,8(a0)
    c0002416:	01a0006f          	j	c0002430 <.LBB28_9+0x32>
    c000241a:	0040006f          	j	c000241e <.LBB28_9+0x20>
    c000241e:	0040006f          	j	c0002422 <.LBB28_9+0x24>
    c0002422:	fe043503          	ld	a0,-32(s0)
    c0002426:	0505                	addi	a0,a0,1
    c0002428:	fea43023          	sd	a0,-32(s0)
    c000242c:	fa1ff06f          	j	c00023cc <vQueueUnregisterQueue+0x16>
    c0002430:	6442                	ld	s0,16(sp)
    c0002432:	60e2                	ld	ra,24(sp)
    c0002434:	6105                	addi	sp,sp,32
    c0002436:	8082                	ret

00000000c0002438 <uxQueueGetQueueNumber>:
    c0002438:	1101                	addi	sp,sp,-32
    c000243a:	ec06                	sd	ra,24(sp)
    c000243c:	e822                	sd	s0,16(sp)
    c000243e:	1000                	addi	s0,sp,32
    c0002440:	fea43423          	sd	a0,-24(s0)
    c0002444:	fe843503          	ld	a0,-24(s0)
    c0002448:	6948                	ld	a0,144(a0)
    c000244a:	6442                	ld	s0,16(sp)
    c000244c:	60e2                	ld	ra,24(sp)
    c000244e:	6105                	addi	sp,sp,32
    c0002450:	8082                	ret

00000000c0002452 <vQueueSetQueueNumber>:
    c0002452:	1101                	addi	sp,sp,-32
    c0002454:	ec06                	sd	ra,24(sp)
    c0002456:	e822                	sd	s0,16(sp)
    c0002458:	1000                	addi	s0,sp,32
    c000245a:	fea43423          	sd	a0,-24(s0)
    c000245e:	feb43023          	sd	a1,-32(s0)
    c0002462:	fe043503          	ld	a0,-32(s0)
    c0002466:	fe843583          	ld	a1,-24(s0)
    c000246a:	e9c8                	sd	a0,144(a1)
    c000246c:	6442                	ld	s0,16(sp)
    c000246e:	60e2                	ld	ra,24(sp)
    c0002470:	6105                	addi	sp,sp,32
    c0002472:	8082                	ret

00000000c0002474 <ucQueueGetQueueType>:
    c0002474:	1101                	addi	sp,sp,-32
    c0002476:	ec06                	sd	ra,24(sp)
    c0002478:	e822                	sd	s0,16(sp)
    c000247a:	1000                	addi	s0,sp,32
    c000247c:	fea43423          	sd	a0,-24(s0)
    c0002480:	fe843503          	ld	a0,-24(s0)
    c0002484:	09854503          	lbu	a0,152(a0)
    c0002488:	6442                	ld	s0,16(sp)
    c000248a:	60e2                	ld	ra,24(sp)
    c000248c:	6105                	addi	sp,sp,32
    c000248e:	8082                	ret

00000000c0002490 <xQueueIsQueueEmptyFromISR>:
    c0002490:	7179                	addi	sp,sp,-48
    c0002492:	f406                	sd	ra,40(sp)
    c0002494:	f022                	sd	s0,32(sp)
    c0002496:	1800                	addi	s0,sp,48
    c0002498:	fea43423          	sd	a0,-24(s0)
    c000249c:	fe843503          	ld	a0,-24(s0)
    c00024a0:	fca43c23          	sd	a0,-40(s0)
    c00024a4:	fd843503          	ld	a0,-40(s0)
    c00024a8:	4581                	li	a1,0
    c00024aa:	00b51b63          	bne	a0,a1,c00024c0 <xQueueIsQueueEmptyFromISR+0x30>
    c00024ae:	0040006f          	j	c00024b2 <xQueueIsQueueEmptyFromISR+0x22>
    c00024b2:	30047073          	csrci	mstatus,8
    c00024b6:	9002                	ebreak
    c00024b8:	0040006f          	j	c00024bc <xQueueIsQueueEmptyFromISR+0x2c>
    c00024bc:	0000006f          	j	c00024bc <xQueueIsQueueEmptyFromISR+0x2c>
    c00024c0:	fd843503          	ld	a0,-40(s0)
    c00024c4:	7928                	ld	a0,112(a0)
    c00024c6:	4581                	li	a1,0
    c00024c8:	00b51963          	bne	a0,a1,c00024da <xQueueIsQueueEmptyFromISR+0x4a>
    c00024cc:	0040006f          	j	c00024d0 <xQueueIsQueueEmptyFromISR+0x40>
    c00024d0:	4505                	li	a0,1
    c00024d2:	fea43023          	sd	a0,-32(s0)
    c00024d6:	00e0006f          	j	c00024e4 <xQueueIsQueueEmptyFromISR+0x54>
    c00024da:	4501                	li	a0,0
    c00024dc:	fea43023          	sd	a0,-32(s0)
    c00024e0:	0040006f          	j	c00024e4 <xQueueIsQueueEmptyFromISR+0x54>
    c00024e4:	fe043503          	ld	a0,-32(s0)
    c00024e8:	7402                	ld	s0,32(sp)
    c00024ea:	70a2                	ld	ra,40(sp)
    c00024ec:	6145                	addi	sp,sp,48
    c00024ee:	8082                	ret

00000000c00024f0 <xQueueIsQueueFullFromISR>:
    c00024f0:	7179                	addi	sp,sp,-48
    c00024f2:	f406                	sd	ra,40(sp)
    c00024f4:	f022                	sd	s0,32(sp)
    c00024f6:	1800                	addi	s0,sp,48
    c00024f8:	fea43423          	sd	a0,-24(s0)
    c00024fc:	fe843503          	ld	a0,-24(s0)
    c0002500:	fca43c23          	sd	a0,-40(s0)
    c0002504:	fd843503          	ld	a0,-40(s0)
    c0002508:	4581                	li	a1,0
    c000250a:	00b51b63          	bne	a0,a1,c0002520 <xQueueIsQueueFullFromISR+0x30>
    c000250e:	0040006f          	j	c0002512 <xQueueIsQueueFullFromISR+0x22>
    c0002512:	30047073          	csrci	mstatus,8
    c0002516:	9002                	ebreak
    c0002518:	0040006f          	j	c000251c <xQueueIsQueueFullFromISR+0x2c>
    c000251c:	0000006f          	j	c000251c <xQueueIsQueueFullFromISR+0x2c>
    c0002520:	fd843503          	ld	a0,-40(s0)
    c0002524:	7928                	ld	a0,112(a0)
    c0002526:	fd843583          	ld	a1,-40(s0)
    c000252a:	7dac                	ld	a1,120(a1)
    c000252c:	00b51963          	bne	a0,a1,c000253e <xQueueIsQueueFullFromISR+0x4e>
    c0002530:	0040006f          	j	c0002534 <xQueueIsQueueFullFromISR+0x44>
    c0002534:	4505                	li	a0,1
    c0002536:	fea43023          	sd	a0,-32(s0)
    c000253a:	00e0006f          	j	c0002548 <xQueueIsQueueFullFromISR+0x58>
    c000253e:	4501                	li	a0,0
    c0002540:	fea43023          	sd	a0,-32(s0)
    c0002544:	0040006f          	j	c0002548 <xQueueIsQueueFullFromISR+0x58>
    c0002548:	fe043503          	ld	a0,-32(s0)
    c000254c:	7402                	ld	s0,32(sp)
    c000254e:	70a2                	ld	ra,40(sp)
    c0002550:	6145                	addi	sp,sp,48
    c0002552:	8082                	ret

00000000c0002554 <vQueueAddToRegistry>:
    c0002554:	7179                	addi	sp,sp,-48
    c0002556:	f406                	sd	ra,40(sp)
    c0002558:	f022                	sd	s0,32(sp)
    c000255a:	1800                	addi	s0,sp,48
    c000255c:	fea43423          	sd	a0,-24(s0)
    c0002560:	feb43023          	sd	a1,-32(s0)
    c0002564:	4501                	li	a0,0
    c0002566:	fca43c23          	sd	a0,-40(s0)
    c000256a:	0040006f          	j	c000256e <vQueueAddToRegistry+0x1a>
    c000256e:	fd843503          	ld	a0,-40(s0)
    c0002572:	459d                	li	a1,7
    c0002574:	06a5e163          	bltu	a1,a0,c00025d6 <.LBB34_9+0x34>
    c0002578:	0040006f          	j	c000257c <vQueueAddToRegistry+0x28>
    c000257c:	fd843503          	ld	a0,-40(s0)
    c0002580:	0512                	slli	a0,a0,0x4

00000000c0002582 <.LBB34_8>:
    c0002582:	00080597          	auipc	a1,0x80
    c0002586:	ece58593          	addi	a1,a1,-306 # c0082450 <xQueueRegistry>
    c000258a:	952e                	add	a0,a0,a1
    c000258c:	6108                	ld	a0,0(a0)
    c000258e:	4581                	li	a1,0
    c0002590:	02b51863          	bne	a0,a1,c00025c0 <.LBB34_9+0x1e>
    c0002594:	0040006f          	j	c0002598 <.LBB34_8+0x16>
    c0002598:	fe043503          	ld	a0,-32(s0)
    c000259c:	fd843583          	ld	a1,-40(s0)
    c00025a0:	0592                	slli	a1,a1,0x4

00000000c00025a2 <.LBB34_9>:
    c00025a2:	00080617          	auipc	a2,0x80
    c00025a6:	eae60613          	addi	a2,a2,-338 # c0082450 <xQueueRegistry>
    c00025aa:	95b2                	add	a1,a1,a2
    c00025ac:	e188                	sd	a0,0(a1)
    c00025ae:	fe843503          	ld	a0,-24(s0)
    c00025b2:	fd843583          	ld	a1,-40(s0)
    c00025b6:	0592                	slli	a1,a1,0x4
    c00025b8:	95b2                	add	a1,a1,a2
    c00025ba:	e588                	sd	a0,8(a1)
    c00025bc:	01a0006f          	j	c00025d6 <.LBB34_9+0x34>
    c00025c0:	0040006f          	j	c00025c4 <.LBB34_9+0x22>
    c00025c4:	0040006f          	j	c00025c8 <.LBB34_9+0x26>
    c00025c8:	fd843503          	ld	a0,-40(s0)
    c00025cc:	0505                	addi	a0,a0,1
    c00025ce:	fca43c23          	sd	a0,-40(s0)
    c00025d2:	f9dff06f          	j	c000256e <vQueueAddToRegistry+0x1a>
    c00025d6:	7402                	ld	s0,32(sp)
    c00025d8:	70a2                	ld	ra,40(sp)
    c00025da:	6145                	addi	sp,sp,48
    c00025dc:	8082                	ret

00000000c00025de <pcQueueGetName>:
    c00025de:	7179                	addi	sp,sp,-48
    c00025e0:	f406                	sd	ra,40(sp)
    c00025e2:	f022                	sd	s0,32(sp)
    c00025e4:	1800                	addi	s0,sp,48
    c00025e6:	fea43423          	sd	a0,-24(s0)
    c00025ea:	4501                	li	a0,0
    c00025ec:	fca43c23          	sd	a0,-40(s0)
    c00025f0:	fea43023          	sd	a0,-32(s0)
    c00025f4:	0040006f          	j	c00025f8 <pcQueueGetName+0x1a>
    c00025f8:	fe043503          	ld	a0,-32(s0)
    c00025fc:	459d                	li	a1,7
    c00025fe:	04a5eb63          	bltu	a1,a0,c0002654 <.LBB35_9+0x2a>
    c0002602:	0040006f          	j	c0002606 <pcQueueGetName+0x28>
    c0002606:	fe043503          	ld	a0,-32(s0)
    c000260a:	0512                	slli	a0,a0,0x4

00000000c000260c <.LBB35_8>:
    c000260c:	00080597          	auipc	a1,0x80
    c0002610:	e4458593          	addi	a1,a1,-444 # c0082450 <xQueueRegistry>
    c0002614:	952e                	add	a0,a0,a1
    c0002616:	6508                	ld	a0,8(a0)
    c0002618:	fe843583          	ld	a1,-24(s0)
    c000261c:	02b51163          	bne	a0,a1,c000263e <.LBB35_9+0x14>
    c0002620:	0040006f          	j	c0002624 <.LBB35_8+0x18>
    c0002624:	fe043503          	ld	a0,-32(s0)
    c0002628:	0512                	slli	a0,a0,0x4

00000000c000262a <.LBB35_9>:
    c000262a:	00080597          	auipc	a1,0x80
    c000262e:	e2658593          	addi	a1,a1,-474 # c0082450 <xQueueRegistry>
    c0002632:	952e                	add	a0,a0,a1
    c0002634:	6108                	ld	a0,0(a0)
    c0002636:	fca43c23          	sd	a0,-40(s0)
    c000263a:	01a0006f          	j	c0002654 <.LBB35_9+0x2a>
    c000263e:	0040006f          	j	c0002642 <.LBB35_9+0x18>
    c0002642:	0040006f          	j	c0002646 <.LBB35_9+0x1c>
    c0002646:	fe043503          	ld	a0,-32(s0)
    c000264a:	0505                	addi	a0,a0,1
    c000264c:	fea43023          	sd	a0,-32(s0)
    c0002650:	fa9ff06f          	j	c00025f8 <pcQueueGetName+0x1a>
    c0002654:	fd843503          	ld	a0,-40(s0)
    c0002658:	7402                	ld	s0,32(sp)
    c000265a:	70a2                	ld	ra,40(sp)
    c000265c:	6145                	addi	sp,sp,48
    c000265e:	8082                	ret

00000000c0002660 <vQueueWaitForMessageRestricted>:
    c0002660:	7179                	addi	sp,sp,-48
    c0002662:	f406                	sd	ra,40(sp)
    c0002664:	f022                	sd	s0,32(sp)
    c0002666:	1800                	addi	s0,sp,48
    c0002668:	fea43423          	sd	a0,-24(s0)
    c000266c:	feb43023          	sd	a1,-32(s0)
    c0002670:	fcc43c23          	sd	a2,-40(s0)
    c0002674:	fe843503          	ld	a0,-24(s0)
    c0002678:	fca43823          	sd	a0,-48(s0)
    c000267c:	00000097          	auipc	ra,0x0
    c0002680:	6a6080e7          	jalr	1702(ra) # c0002d22 <vTaskEnterCritical>
    c0002684:	fd043503          	ld	a0,-48(s0)
    c0002688:	08850503          	lb	a0,136(a0)
    c000268c:	55fd                	li	a1,-1
    c000268e:	00b51b63          	bne	a0,a1,c00026a4 <vQueueWaitForMessageRestricted+0x44>
    c0002692:	0040006f          	j	c0002696 <vQueueWaitForMessageRestricted+0x36>
    c0002696:	fd043503          	ld	a0,-48(s0)
    c000269a:	4581                	li	a1,0
    c000269c:	08b50423          	sb	a1,136(a0)
    c00026a0:	0040006f          	j	c00026a4 <vQueueWaitForMessageRestricted+0x44>
    c00026a4:	fd043503          	ld	a0,-48(s0)
    c00026a8:	08950503          	lb	a0,137(a0)
    c00026ac:	55fd                	li	a1,-1
    c00026ae:	00b51b63          	bne	a0,a1,c00026c4 <vQueueWaitForMessageRestricted+0x64>
    c00026b2:	0040006f          	j	c00026b6 <vQueueWaitForMessageRestricted+0x56>
    c00026b6:	fd043503          	ld	a0,-48(s0)
    c00026ba:	4581                	li	a1,0
    c00026bc:	08b504a3          	sb	a1,137(a0)
    c00026c0:	0040006f          	j	c00026c4 <vQueueWaitForMessageRestricted+0x64>
    c00026c4:	00000097          	auipc	ra,0x0
    c00026c8:	73a080e7          	jalr	1850(ra) # c0002dfe <vTaskExitCritical>
    c00026cc:	fd043503          	ld	a0,-48(s0)
    c00026d0:	7928                	ld	a0,112(a0)
    c00026d2:	4581                	li	a1,0
    c00026d4:	02b51263          	bne	a0,a1,c00026f8 <vQueueWaitForMessageRestricted+0x98>
    c00026d8:	0040006f          	j	c00026dc <vQueueWaitForMessageRestricted+0x7c>
    c00026dc:	fd043503          	ld	a0,-48(s0)
    c00026e0:	04850513          	addi	a0,a0,72
    c00026e4:	fe043583          	ld	a1,-32(s0)
    c00026e8:	fd843603          	ld	a2,-40(s0)
    c00026ec:	00002097          	auipc	ra,0x2
    c00026f0:	6f8080e7          	jalr	1784(ra) # c0004de4 <vTaskPlaceOnEventListRestricted>
    c00026f4:	0080006f          	j	c00026fc <vQueueWaitForMessageRestricted+0x9c>
    c00026f8:	0040006f          	j	c00026fc <vQueueWaitForMessageRestricted+0x9c>
    c00026fc:	fd043503          	ld	a0,-48(s0)
    c0002700:	fffff097          	auipc	ra,0xfffff
    c0002704:	e0e080e7          	jalr	-498(ra) # c000150e <prvUnlockQueue>
    c0002708:	7402                	ld	s0,32(sp)
    c000270a:	70a2                	ld	ra,40(sp)
    c000270c:	6145                	addi	sp,sp,48
    c000270e:	8082                	ret

00000000c0002710 <xTaskCreate>:
    c0002710:	711d                	addi	sp,sp,-96
    c0002712:	ec86                	sd	ra,88(sp)
    c0002714:	e8a2                	sd	s0,80(sp)
    c0002716:	1080                	addi	s0,sp,96
    c0002718:	8832                	mv	a6,a2
    c000271a:	fea43423          	sd	a0,-24(s0)
    c000271e:	feb43023          	sd	a1,-32(s0)
    c0002722:	fcc42e23          	sw	a2,-36(s0)
    c0002726:	fcd43823          	sd	a3,-48(s0)
    c000272a:	fce43423          	sd	a4,-56(s0)
    c000272e:	fcf43023          	sd	a5,-64(s0)
    c0002732:	fdc46503          	lwu	a0,-36(s0)
    c0002736:	050e                	slli	a0,a0,0x3
    c0002738:	fb043023          	sd	a6,-96(s0)
    c000273c:	00007097          	auipc	ra,0x7
    c0002740:	f74080e7          	jalr	-140(ra) # c00096b0 <pvPortMalloc>
    c0002744:	faa43423          	sd	a0,-88(s0)
    c0002748:	fa843503          	ld	a0,-88(s0)
    c000274c:	4581                	li	a1,0
    c000274e:	04b50463          	beq	a0,a1,c0002796 <xTaskCreate+0x86>
    c0002752:	0040006f          	j	c0002756 <xTaskCreate+0x46>
    c0002756:	0b800513          	li	a0,184
    c000275a:	00007097          	auipc	ra,0x7
    c000275e:	f56080e7          	jalr	-170(ra) # c00096b0 <pvPortMalloc>
    c0002762:	faa43c23          	sd	a0,-72(s0)
    c0002766:	fb843503          	ld	a0,-72(s0)
    c000276a:	4581                	li	a1,0
    c000276c:	00b50b63          	beq	a0,a1,c0002782 <xTaskCreate+0x72>
    c0002770:	0040006f          	j	c0002774 <xTaskCreate+0x64>
    c0002774:	fa843503          	ld	a0,-88(s0)
    c0002778:	fb843583          	ld	a1,-72(s0)
    c000277c:	f1a8                	sd	a0,96(a1)
    c000277e:	0140006f          	j	c0002792 <xTaskCreate+0x82>
    c0002782:	fa843503          	ld	a0,-88(s0)
    c0002786:	00007097          	auipc	ra,0x7
    c000278a:	420080e7          	jalr	1056(ra) # c0009ba6 <vPortFree>
    c000278e:	0040006f          	j	c0002792 <xTaskCreate+0x82>
    c0002792:	00e0006f          	j	c00027a0 <xTaskCreate+0x90>
    c0002796:	4501                	li	a0,0
    c0002798:	faa43c23          	sd	a0,-72(s0)
    c000279c:	0040006f          	j	c00027a0 <xTaskCreate+0x90>
    c00027a0:	fb843503          	ld	a0,-72(s0)
    c00027a4:	4581                	li	a1,0
    c00027a6:	04b50263          	beq	a0,a1,c00027ea <xTaskCreate+0xda>
    c00027aa:	0040006f          	j	c00027ae <xTaskCreate+0x9e>
    c00027ae:	fe843503          	ld	a0,-24(s0)
    c00027b2:	fe043583          	ld	a1,-32(s0)
    c00027b6:	fdc42603          	lw	a2,-36(s0)
    c00027ba:	fd043683          	ld	a3,-48(s0)
    c00027be:	fc843703          	ld	a4,-56(s0)
    c00027c2:	fc043783          	ld	a5,-64(s0)
    c00027c6:	fb843803          	ld	a6,-72(s0)
    c00027ca:	4881                	li	a7,0
    c00027cc:	00000097          	auipc	ra,0x0
    c00027d0:	034080e7          	jalr	52(ra) # c0002800 <prvInitialiseNewTask>
    c00027d4:	fb843503          	ld	a0,-72(s0)
    c00027d8:	00000097          	auipc	ra,0x0
    c00027dc:	22a080e7          	jalr	554(ra) # c0002a02 <prvAddNewTaskToReadyList>
    c00027e0:	4505                	li	a0,1
    c00027e2:	faa43823          	sd	a0,-80(s0)
    c00027e6:	00e0006f          	j	c00027f4 <xTaskCreate+0xe4>
    c00027ea:	557d                	li	a0,-1
    c00027ec:	faa43823          	sd	a0,-80(s0)
    c00027f0:	0040006f          	j	c00027f4 <xTaskCreate+0xe4>
    c00027f4:	fb043503          	ld	a0,-80(s0)
    c00027f8:	6446                	ld	s0,80(sp)
    c00027fa:	60e6                	ld	ra,88(sp)
    c00027fc:	6125                	addi	sp,sp,96
    c00027fe:	8082                	ret

00000000c0002800 <prvInitialiseNewTask>:
    c0002800:	7159                	addi	sp,sp,-112
    c0002802:	f486                	sd	ra,104(sp)
    c0002804:	f0a2                	sd	s0,96(sp)
    c0002806:	1880                	addi	s0,sp,112
    c0002808:	82b2                	mv	t0,a2
    c000280a:	fea43423          	sd	a0,-24(s0)
    c000280e:	feb43023          	sd	a1,-32(s0)
    c0002812:	fcc42e23          	sw	a2,-36(s0)
    c0002816:	fcd43823          	sd	a3,-48(s0)
    c000281a:	fce43423          	sd	a4,-56(s0)
    c000281e:	fcf43023          	sd	a5,-64(s0)
    c0002822:	fb043c23          	sd	a6,-72(s0)
    c0002826:	fb143823          	sd	a7,-80(s0)
    c000282a:	fb843503          	ld	a0,-72(s0)
    c000282e:	7128                	ld	a0,96(a0)
    c0002830:	fdc46583          	lwu	a1,-36(s0)
    c0002834:	00359613          	slli	a2,a1,0x3
    c0002838:	0a500593          	li	a1,165
    c000283c:	f8543c23          	sd	t0,-104(s0)
    c0002840:	00008097          	auipc	ra,0x8
    c0002844:	62c080e7          	jalr	1580(ra) # c000ae6c <memset>
    c0002848:	fb843583          	ld	a1,-72(s0)
    c000284c:	71ac                	ld	a1,96(a1)
    c000284e:	fdc42603          	lw	a2,-36(s0)
    c0002852:	167d                	addi	a2,a2,-1
    c0002854:	1602                	slli	a2,a2,0x20
    c0002856:	9201                	srli	a2,a2,0x20
    c0002858:	060e                	slli	a2,a2,0x3
    c000285a:	95b2                	add	a1,a1,a2
    c000285c:	fab43423          	sd	a1,-88(s0)
    c0002860:	fa843583          	ld	a1,-88(s0)
    c0002864:	99c1                	andi	a1,a1,-16
    c0002866:	fab43423          	sd	a1,-88(s0)
    c000286a:	fa844583          	lbu	a1,-88(s0)
    c000286e:	89bd                	andi	a1,a1,15
    c0002870:	4601                	li	a2,0
    c0002872:	00c58b63          	beq	a1,a2,c0002888 <prvInitialiseNewTask+0x88>
    c0002876:	0040006f          	j	c000287a <prvInitialiseNewTask+0x7a>
    c000287a:	30047073          	csrci	mstatus,8
    c000287e:	9002                	ebreak
    c0002880:	0040006f          	j	c0002884 <prvInitialiseNewTask+0x84>
    c0002884:	0000006f          	j	c0002884 <prvInitialiseNewTask+0x84>
    c0002888:	fa843503          	ld	a0,-88(s0)
    c000288c:	fb843583          	ld	a1,-72(s0)
    c0002890:	fda8                	sd	a0,120(a1)
    c0002892:	fe043503          	ld	a0,-32(s0)
    c0002896:	4581                	li	a1,0
    c0002898:	06b50c63          	beq	a0,a1,c0002910 <prvInitialiseNewTask+0x110>
    c000289c:	0040006f          	j	c00028a0 <prvInitialiseNewTask+0xa0>
    c00028a0:	4501                	li	a0,0
    c00028a2:	faa43023          	sd	a0,-96(s0)
    c00028a6:	0040006f          	j	c00028aa <prvInitialiseNewTask+0xaa>
    c00028aa:	fa043503          	ld	a0,-96(s0)
    c00028ae:	45bd                	li	a1,15
    c00028b0:	04a5e963          	bltu	a1,a0,c0002902 <prvInitialiseNewTask+0x102>
    c00028b4:	0040006f          	j	c00028b8 <prvInitialiseNewTask+0xb8>
    c00028b8:	fe043503          	ld	a0,-32(s0)
    c00028bc:	fa043583          	ld	a1,-96(s0)
    c00028c0:	952e                	add	a0,a0,a1
    c00028c2:	00050503          	lb	a0,0(a0)
    c00028c6:	fb843603          	ld	a2,-72(s0)
    c00028ca:	95b2                	add	a1,a1,a2
    c00028cc:	06a58423          	sb	a0,104(a1)
    c00028d0:	fe043503          	ld	a0,-32(s0)
    c00028d4:	fa043583          	ld	a1,-96(s0)
    c00028d8:	952e                	add	a0,a0,a1
    c00028da:	00054503          	lbu	a0,0(a0)
    c00028de:	4581                	li	a1,0
    c00028e0:	00b51663          	bne	a0,a1,c00028ec <prvInitialiseNewTask+0xec>
    c00028e4:	0040006f          	j	c00028e8 <prvInitialiseNewTask+0xe8>
    c00028e8:	01a0006f          	j	c0002902 <prvInitialiseNewTask+0x102>
    c00028ec:	0040006f          	j	c00028f0 <prvInitialiseNewTask+0xf0>
    c00028f0:	0040006f          	j	c00028f4 <prvInitialiseNewTask+0xf4>
    c00028f4:	fa043503          	ld	a0,-96(s0)
    c00028f8:	0505                	addi	a0,a0,1
    c00028fa:	faa43023          	sd	a0,-96(s0)
    c00028fe:	fadff06f          	j	c00028aa <prvInitialiseNewTask+0xaa>
    c0002902:	fb843503          	ld	a0,-72(s0)
    c0002906:	4581                	li	a1,0
    c0002908:	06b50ba3          	sb	a1,119(a0)
    c000290c:	0120006f          	j	c000291e <prvInitialiseNewTask+0x11e>
    c0002910:	fb843503          	ld	a0,-72(s0)
    c0002914:	4581                	li	a1,0
    c0002916:	06b50423          	sb	a1,104(a0)
    c000291a:	0040006f          	j	c000291e <prvInitialiseNewTask+0x11e>
    c000291e:	fc843503          	ld	a0,-56(s0)
    c0002922:	4595                	li	a1,5
    c0002924:	00b56963          	bltu	a0,a1,c0002936 <prvInitialiseNewTask+0x136>
    c0002928:	0040006f          	j	c000292c <prvInitialiseNewTask+0x12c>
    c000292c:	4511                	li	a0,4
    c000292e:	fca43423          	sd	a0,-56(s0)
    c0002932:	0080006f          	j	c000293a <prvInitialiseNewTask+0x13a>
    c0002936:	0040006f          	j	c000293a <prvInitialiseNewTask+0x13a>
    c000293a:	fc843503          	ld	a0,-56(s0)
    c000293e:	fb843583          	ld	a1,-72(s0)
    c0002942:	eda8                	sd	a0,88(a1)
    c0002944:	fc843503          	ld	a0,-56(s0)
    c0002948:	fb843583          	ld	a1,-72(s0)
    c000294c:	edc8                	sd	a0,152(a1)
    c000294e:	fb843503          	ld	a0,-72(s0)
    c0002952:	4581                	li	a1,0
    c0002954:	f14c                	sd	a1,160(a0)
    c0002956:	fb843503          	ld	a0,-72(s0)
    c000295a:	0521                	addi	a0,a0,8
    c000295c:	f8b43823          	sd	a1,-112(s0)
    c0002960:	ffffe097          	auipc	ra,0xffffe
    c0002964:	c52080e7          	jalr	-942(ra) # c00005b2 <vListInitialiseItem>
    c0002968:	fb843503          	ld	a0,-72(s0)
    c000296c:	03050513          	addi	a0,a0,48
    c0002970:	ffffe097          	auipc	ra,0xffffe
    c0002974:	c42080e7          	jalr	-958(ra) # c00005b2 <vListInitialiseItem>
    c0002978:	fb843503          	ld	a0,-72(s0)
    c000297c:	f108                	sd	a0,32(a0)
    c000297e:	fc843503          	ld	a0,-56(s0)
    c0002982:	4595                	li	a1,5
    c0002984:	40a58533          	sub	a0,a1,a0
    c0002988:	fb843583          	ld	a1,-72(s0)
    c000298c:	f988                	sd	a0,48(a1)
    c000298e:	fb843503          	ld	a0,-72(s0)
    c0002992:	e528                	sd	a0,72(a0)
    c0002994:	fb843503          	ld	a0,-72(s0)
    c0002998:	f9043583          	ld	a1,-112(s0)
    c000299c:	e14c                	sd	a1,128(a0)
    c000299e:	fb843503          	ld	a0,-72(s0)
    c00029a2:	0ab52423          	sw	a1,168(a0)
    c00029a6:	fb843503          	ld	a0,-72(s0)
    c00029aa:	0ab52623          	sw	a1,172(a0)
    c00029ae:	fb843503          	ld	a0,-72(s0)
    c00029b2:	0ab50823          	sb	a1,176(a0)
    c00029b6:	fb843503          	ld	a0,-72(s0)
    c00029ba:	0ab508a3          	sb	a1,177(a0)
    c00029be:	fa843503          	ld	a0,-88(s0)
    c00029c2:	fe843583          	ld	a1,-24(s0)
    c00029c6:	fd043603          	ld	a2,-48(s0)
    c00029ca:	ffffe097          	auipc	ra,0xffffe
    c00029ce:	a36080e7          	jalr	-1482(ra) # c0000400 <pxPortInitialiseStack>
    c00029d2:	fb843583          	ld	a1,-72(s0)
    c00029d6:	e188                	sd	a0,0(a1)
    c00029d8:	fc043503          	ld	a0,-64(s0)
    c00029dc:	f9043583          	ld	a1,-112(s0)
    c00029e0:	00b50b63          	beq	a0,a1,c00029f6 <prvInitialiseNewTask+0x1f6>
    c00029e4:	0040006f          	j	c00029e8 <prvInitialiseNewTask+0x1e8>
    c00029e8:	fb843503          	ld	a0,-72(s0)
    c00029ec:	fc043583          	ld	a1,-64(s0)
    c00029f0:	e188                	sd	a0,0(a1)
    c00029f2:	0080006f          	j	c00029fa <prvInitialiseNewTask+0x1fa>
    c00029f6:	0040006f          	j	c00029fa <prvInitialiseNewTask+0x1fa>
    c00029fa:	7406                	ld	s0,96(sp)
    c00029fc:	70a6                	ld	ra,104(sp)
    c00029fe:	6165                	addi	sp,sp,112
    c0002a00:	8082                	ret

00000000c0002a02 <prvAddNewTaskToReadyList>:
    c0002a02:	1101                	addi	sp,sp,-32
    c0002a04:	ec06                	sd	ra,24(sp)
    c0002a06:	e822                	sd	s0,16(sp)
    c0002a08:	1000                	addi	s0,sp,32
    c0002a0a:	fea43423          	sd	a0,-24(s0)
    c0002a0e:	00000097          	auipc	ra,0x0
    c0002a12:	314080e7          	jalr	788(ra) # c0002d22 <vTaskEnterCritical>

00000000c0002a16 <.LBB2_19>:
    c0002a16:	0007e517          	auipc	a0,0x7e
    c0002a1a:	b1a50513          	addi	a0,a0,-1254 # c0080530 <uxCurrentNumberOfTasks>
    c0002a1e:	610c                	ld	a1,0(a0)
    c0002a20:	0585                	addi	a1,a1,1
    c0002a22:	e10c                	sd	a1,0(a0)

00000000c0002a24 <.LBB2_20>:
    c0002a24:	0007e517          	auipc	a0,0x7e
    c0002a28:	aec50513          	addi	a0,a0,-1300 # c0080510 <pxCurrentTCB>
    c0002a2c:	6108                	ld	a0,0(a0)
    c0002a2e:	4581                	li	a1,0
    c0002a30:	02b51f63          	bne	a0,a1,c0002a6e <.LBB2_23>
    c0002a34:	0040006f          	j	c0002a38 <.LBB2_20+0x14>
    c0002a38:	fe843503          	ld	a0,-24(s0)

00000000c0002a3c <.LBB2_21>:
    c0002a3c:	0007e597          	auipc	a1,0x7e
    c0002a40:	ad458593          	addi	a1,a1,-1324 # c0080510 <pxCurrentTCB>
    c0002a44:	e188                	sd	a0,0(a1)

00000000c0002a46 <.LBB2_22>:
    c0002a46:	0007e517          	auipc	a0,0x7e
    c0002a4a:	aea50513          	addi	a0,a0,-1302 # c0080530 <uxCurrentNumberOfTasks>
    c0002a4e:	6108                	ld	a0,0(a0)
    c0002a50:	4585                	li	a1,1
    c0002a52:	00b51a63          	bne	a0,a1,c0002a66 <.LBB2_22+0x20>
    c0002a56:	0040006f          	j	c0002a5a <.LBB2_22+0x14>
    c0002a5a:	00004097          	auipc	ra,0x4
    c0002a5e:	e40080e7          	jalr	-448(ra) # c000689a <prvInitialiseTaskLists>
    c0002a62:	0080006f          	j	c0002a6a <.LBB2_22+0x24>
    c0002a66:	0040006f          	j	c0002a6a <.LBB2_22+0x24>
    c0002a6a:	0540006f          	j	c0002abe <.LBB2_26>

00000000c0002a6e <.LBB2_23>:
    c0002a6e:	0007e517          	auipc	a0,0x7e
    c0002a72:	aca50513          	addi	a0,a0,-1334 # c0080538 <xSchedulerRunning>
    c0002a76:	6108                	ld	a0,0(a0)
    c0002a78:	4581                	li	a1,0
    c0002a7a:	02b51e63          	bne	a0,a1,c0002ab6 <.LBB2_25+0x16>
    c0002a7e:	0040006f          	j	c0002a82 <.LBB2_24>

00000000c0002a82 <.LBB2_24>:
    c0002a82:	0007e517          	auipc	a0,0x7e
    c0002a86:	a8e50513          	addi	a0,a0,-1394 # c0080510 <pxCurrentTCB>
    c0002a8a:	6108                	ld	a0,0(a0)
    c0002a8c:	6d28                	ld	a0,88(a0)
    c0002a8e:	fe843583          	ld	a1,-24(s0)
    c0002a92:	6dac                	ld	a1,88(a1)
    c0002a94:	00a5ed63          	bltu	a1,a0,c0002aae <.LBB2_25+0xe>
    c0002a98:	0040006f          	j	c0002a9c <.LBB2_24+0x1a>
    c0002a9c:	fe843503          	ld	a0,-24(s0)

00000000c0002aa0 <.LBB2_25>:
    c0002aa0:	0007e597          	auipc	a1,0x7e
    c0002aa4:	a7058593          	addi	a1,a1,-1424 # c0080510 <pxCurrentTCB>
    c0002aa8:	e188                	sd	a0,0(a1)
    c0002aaa:	0080006f          	j	c0002ab2 <.LBB2_25+0x12>
    c0002aae:	0040006f          	j	c0002ab2 <.LBB2_25+0x12>
    c0002ab2:	0080006f          	j	c0002aba <.LBB2_25+0x1a>
    c0002ab6:	0040006f          	j	c0002aba <.LBB2_25+0x1a>
    c0002aba:	0040006f          	j	c0002abe <.LBB2_26>

00000000c0002abe <.LBB2_26>:
    c0002abe:	0007e517          	auipc	a0,0x7e
    c0002ac2:	a6250513          	addi	a0,a0,-1438 # c0080520 <uxTaskNumber>
    c0002ac6:	610c                	ld	a1,0(a0)
    c0002ac8:	0585                	addi	a1,a1,1
    c0002aca:	e10c                	sd	a1,0(a0)
    c0002acc:	6108                	ld	a0,0(a0)
    c0002ace:	fe843583          	ld	a1,-24(s0)
    c0002ad2:	e5c8                	sd	a0,136(a1)
    c0002ad4:	fe843503          	ld	a0,-24(s0)
    c0002ad8:	6d28                	ld	a0,88(a0)
    c0002ada:	4585                	li	a1,1
    c0002adc:	00a59533          	sll	a0,a1,a0

00000000c0002ae0 <.LBB2_27>:
    c0002ae0:	0007e597          	auipc	a1,0x7e
    c0002ae4:	a3858593          	addi	a1,a1,-1480 # c0080518 <uxTopReadyPriority>
    c0002ae8:	6190                	ld	a2,0(a1)
    c0002aea:	8d51                	or	a0,a0,a2
    c0002aec:	e188                	sd	a0,0(a1)
    c0002aee:	fe843503          	ld	a0,-24(s0)
    c0002af2:	6d2c                	ld	a1,88(a0)
    c0002af4:	02800613          	li	a2,40
    c0002af8:	02c585b3          	mul	a1,a1,a2

00000000c0002afc <.LBB2_28>:
    c0002afc:	00080617          	auipc	a2,0x80
    c0002b00:	9d460613          	addi	a2,a2,-1580 # c00824d0 <pxReadyTasksLists>
    c0002b04:	95b2                	add	a1,a1,a2
    c0002b06:	0521                	addi	a0,a0,8
    c0002b08:	fea43023          	sd	a0,-32(s0)
    c0002b0c:	852e                	mv	a0,a1
    c0002b0e:	fe043583          	ld	a1,-32(s0)
    c0002b12:	ffffe097          	auipc	ra,0xffffe
    c0002b16:	abc080e7          	jalr	-1348(ra) # c00005ce <vListInsertEnd>
    c0002b1a:	00000097          	auipc	ra,0x0
    c0002b1e:	2e4080e7          	jalr	740(ra) # c0002dfe <vTaskExitCritical>

00000000c0002b22 <.LBB2_29>:
    c0002b22:	0007e517          	auipc	a0,0x7e
    c0002b26:	a1650513          	addi	a0,a0,-1514 # c0080538 <xSchedulerRunning>
    c0002b2a:	6108                	ld	a0,0(a0)
    c0002b2c:	4581                	li	a1,0
    c0002b2e:	02b50963          	beq	a0,a1,c0002b60 <.LBB2_30+0x2a>
    c0002b32:	0040006f          	j	c0002b36 <.LBB2_30>

00000000c0002b36 <.LBB2_30>:
    c0002b36:	0007e517          	auipc	a0,0x7e
    c0002b3a:	9da50513          	addi	a0,a0,-1574 # c0080510 <pxCurrentTCB>
    c0002b3e:	6108                	ld	a0,0(a0)
    c0002b40:	6d28                	ld	a0,88(a0)
    c0002b42:	fe843583          	ld	a1,-24(s0)
    c0002b46:	6dac                	ld	a1,88(a1)
    c0002b48:	00b57863          	bgeu	a0,a1,c0002b58 <.LBB2_30+0x22>
    c0002b4c:	0040006f          	j	c0002b50 <.LBB2_30+0x1a>
    c0002b50:	00000073          	ecall
    c0002b54:	0080006f          	j	c0002b5c <.LBB2_30+0x26>
    c0002b58:	0040006f          	j	c0002b5c <.LBB2_30+0x26>
    c0002b5c:	0080006f          	j	c0002b64 <.LBB2_30+0x2e>
    c0002b60:	0040006f          	j	c0002b64 <.LBB2_30+0x2e>
    c0002b64:	6442                	ld	s0,16(sp)
    c0002b66:	60e2                	ld	ra,24(sp)
    c0002b68:	6105                	addi	sp,sp,32
    c0002b6a:	8082                	ret

00000000c0002b6c <vTaskDelete>:
    c0002b6c:	7179                	addi	sp,sp,-48
    c0002b6e:	f406                	sd	ra,40(sp)
    c0002b70:	f022                	sd	s0,32(sp)
    c0002b72:	1800                	addi	s0,sp,48
    c0002b74:	fea43423          	sd	a0,-24(s0)
    c0002b78:	00000097          	auipc	ra,0x0
    c0002b7c:	1aa080e7          	jalr	426(ra) # c0002d22 <vTaskEnterCritical>
    c0002b80:	fe843503          	ld	a0,-24(s0)
    c0002b84:	4581                	li	a1,0
    c0002b86:	00b51d63          	bne	a0,a1,c0002ba0 <.LBB3_23+0x12>
    c0002b8a:	0040006f          	j	c0002b8e <.LBB3_23>

00000000c0002b8e <.LBB3_23>:
    c0002b8e:	0007e517          	auipc	a0,0x7e
    c0002b92:	98250513          	addi	a0,a0,-1662 # c0080510 <pxCurrentTCB>
    c0002b96:	6108                	ld	a0,0(a0)
    c0002b98:	fca43c23          	sd	a0,-40(s0)
    c0002b9c:	0100006f          	j	c0002bac <.LBB3_23+0x1e>
    c0002ba0:	fe843503          	ld	a0,-24(s0)
    c0002ba4:	fca43c23          	sd	a0,-40(s0)
    c0002ba8:	0040006f          	j	c0002bac <.LBB3_23+0x1e>
    c0002bac:	fd843503          	ld	a0,-40(s0)
    c0002bb0:	fea43023          	sd	a0,-32(s0)
    c0002bb4:	fe043503          	ld	a0,-32(s0)
    c0002bb8:	0521                	addi	a0,a0,8
    c0002bba:	ffffe097          	auipc	ra,0xffffe
    c0002bbe:	b28080e7          	jalr	-1240(ra) # c00006e2 <uxListRemove>
    c0002bc2:	4581                	li	a1,0
    c0002bc4:	04b51963          	bne	a0,a1,c0002c16 <.LBB3_25+0x16>
    c0002bc8:	0040006f          	j	c0002bcc <.LBB3_23+0x3e>
    c0002bcc:	fe043503          	ld	a0,-32(s0)
    c0002bd0:	6d28                	ld	a0,88(a0)
    c0002bd2:	02800593          	li	a1,40
    c0002bd6:	02b50533          	mul	a0,a0,a1

00000000c0002bda <.LBB3_24>:
    c0002bda:	00080597          	auipc	a1,0x80
    c0002bde:	8f658593          	addi	a1,a1,-1802 # c00824d0 <pxReadyTasksLists>
    c0002be2:	952e                	add	a0,a0,a1
    c0002be4:	6108                	ld	a0,0(a0)
    c0002be6:	4581                	li	a1,0
    c0002be8:	02b51563          	bne	a0,a1,c0002c12 <.LBB3_25+0x12>
    c0002bec:	0040006f          	j	c0002bf0 <.LBB3_24+0x16>
    c0002bf0:	fe043503          	ld	a0,-32(s0)
    c0002bf4:	6d28                	ld	a0,88(a0)
    c0002bf6:	4585                	li	a1,1
    c0002bf8:	00a59533          	sll	a0,a1,a0
    c0002bfc:	fff54513          	not	a0,a0

00000000c0002c00 <.LBB3_25>:
    c0002c00:	0007e597          	auipc	a1,0x7e
    c0002c04:	91858593          	addi	a1,a1,-1768 # c0080518 <uxTopReadyPriority>
    c0002c08:	6190                	ld	a2,0(a1)
    c0002c0a:	8d71                	and	a0,a0,a2
    c0002c0c:	e188                	sd	a0,0(a1)
    c0002c0e:	0040006f          	j	c0002c12 <.LBB3_25+0x12>
    c0002c12:	0080006f          	j	c0002c1a <.LBB3_25+0x1a>
    c0002c16:	0040006f          	j	c0002c1a <.LBB3_25+0x1a>
    c0002c1a:	fe043503          	ld	a0,-32(s0)
    c0002c1e:	6928                	ld	a0,80(a0)
    c0002c20:	4581                	li	a1,0
    c0002c22:	00b50e63          	beq	a0,a1,c0002c3e <.LBB3_25+0x3e>
    c0002c26:	0040006f          	j	c0002c2a <.LBB3_25+0x2a>
    c0002c2a:	fe043503          	ld	a0,-32(s0)
    c0002c2e:	03050513          	addi	a0,a0,48
    c0002c32:	ffffe097          	auipc	ra,0xffffe
    c0002c36:	ab0080e7          	jalr	-1360(ra) # c00006e2 <uxListRemove>
    c0002c3a:	0080006f          	j	c0002c42 <.LBB3_26>
    c0002c3e:	0040006f          	j	c0002c42 <.LBB3_26>

00000000c0002c42 <.LBB3_26>:
    c0002c42:	0007e517          	auipc	a0,0x7e
    c0002c46:	8de50513          	addi	a0,a0,-1826 # c0080520 <uxTaskNumber>
    c0002c4a:	610c                	ld	a1,0(a0)
    c0002c4c:	0585                	addi	a1,a1,1
    c0002c4e:	e10c                	sd	a1,0(a0)
    c0002c50:	fe043503          	ld	a0,-32(s0)

00000000c0002c54 <.LBB3_27>:
    c0002c54:	0007e597          	auipc	a1,0x7e
    c0002c58:	8bc58593          	addi	a1,a1,-1860 # c0080510 <pxCurrentTCB>
    c0002c5c:	618c                	ld	a1,0(a1)
    c0002c5e:	02b51963          	bne	a0,a1,c0002c90 <.LBB3_30>
    c0002c62:	0040006f          	j	c0002c66 <.LBB3_27+0x12>
    c0002c66:	fe043503          	ld	a0,-32(s0)
    c0002c6a:	00850593          	addi	a1,a0,8

00000000c0002c6e <.LBB3_28>:
    c0002c6e:	00080517          	auipc	a0,0x80
    c0002c72:	92a50513          	addi	a0,a0,-1750 # c0082598 <xTasksWaitingTermination>
    c0002c76:	ffffe097          	auipc	ra,0xffffe
    c0002c7a:	958080e7          	jalr	-1704(ra) # c00005ce <vListInsertEnd>

00000000c0002c7e <.LBB3_29>:
    c0002c7e:	0007e517          	auipc	a0,0x7e
    c0002c82:	8aa50513          	addi	a0,a0,-1878 # c0080528 <uxDeletedTasksWaitingCleanUp>
    c0002c86:	610c                	ld	a1,0(a0)
    c0002c88:	0585                	addi	a1,a1,1
    c0002c8a:	e10c                	sd	a1,0(a0)
    c0002c8c:	02a0006f          	j	c0002cb6 <.LBB3_30+0x26>

00000000c0002c90 <.LBB3_30>:
    c0002c90:	0007e517          	auipc	a0,0x7e
    c0002c94:	8a050513          	addi	a0,a0,-1888 # c0080530 <uxCurrentNumberOfTasks>
    c0002c98:	610c                	ld	a1,0(a0)
    c0002c9a:	15fd                	addi	a1,a1,-1
    c0002c9c:	e10c                	sd	a1,0(a0)
    c0002c9e:	fe043503          	ld	a0,-32(s0)
    c0002ca2:	00000097          	auipc	ra,0x0
    c0002ca6:	0d2080e7          	jalr	210(ra) # c0002d74 <prvDeleteTCB>
    c0002caa:	00000097          	auipc	ra,0x0
    c0002cae:	0f8080e7          	jalr	248(ra) # c0002da2 <prvResetNextTaskUnblockTime>
    c0002cb2:	0040006f          	j	c0002cb6 <.LBB3_30+0x26>
    c0002cb6:	00000097          	auipc	ra,0x0
    c0002cba:	148080e7          	jalr	328(ra) # c0002dfe <vTaskExitCritical>

00000000c0002cbe <.LBB3_31>:
    c0002cbe:	0007e517          	auipc	a0,0x7e
    c0002cc2:	87a50513          	addi	a0,a0,-1926 # c0080538 <xSchedulerRunning>
    c0002cc6:	6108                	ld	a0,0(a0)
    c0002cc8:	4581                	li	a1,0
    c0002cca:	04b50863          	beq	a0,a1,c0002d1a <.LBB3_33+0x32>
    c0002cce:	0040006f          	j	c0002cd2 <.LBB3_31+0x14>
    c0002cd2:	fe043503          	ld	a0,-32(s0)

00000000c0002cd6 <.LBB3_32>:
    c0002cd6:	0007e597          	auipc	a1,0x7e
    c0002cda:	83a58593          	addi	a1,a1,-1990 # c0080510 <pxCurrentTCB>
    c0002cde:	618c                	ld	a1,0(a1)
    c0002ce0:	02b51963          	bne	a0,a1,c0002d12 <.LBB3_33+0x2a>
    c0002ce4:	0040006f          	j	c0002ce8 <.LBB3_33>

00000000c0002ce8 <.LBB3_33>:
    c0002ce8:	0007e517          	auipc	a0,0x7e
    c0002cec:	85850513          	addi	a0,a0,-1960 # c0080540 <uxSchedulerSuspended>
    c0002cf0:	6108                	ld	a0,0(a0)
    c0002cf2:	4581                	li	a1,0
    c0002cf4:	00b50b63          	beq	a0,a1,c0002d0a <.LBB3_33+0x22>
    c0002cf8:	0040006f          	j	c0002cfc <.LBB3_33+0x14>
    c0002cfc:	30047073          	csrci	mstatus,8
    c0002d00:	9002                	ebreak
    c0002d02:	0040006f          	j	c0002d06 <.LBB3_33+0x1e>
    c0002d06:	0000006f          	j	c0002d06 <.LBB3_33+0x1e>
    c0002d0a:	00000073          	ecall
    c0002d0e:	0080006f          	j	c0002d16 <.LBB3_33+0x2e>
    c0002d12:	0040006f          	j	c0002d16 <.LBB3_33+0x2e>
    c0002d16:	0040006f          	j	c0002d1a <.LBB3_33+0x32>
    c0002d1a:	7402                	ld	s0,32(sp)
    c0002d1c:	70a2                	ld	ra,40(sp)
    c0002d1e:	6145                	addi	sp,sp,48
    c0002d20:	8082                	ret

00000000c0002d22 <vTaskEnterCritical>:
    c0002d22:	1141                	addi	sp,sp,-16
    c0002d24:	e406                	sd	ra,8(sp)
    c0002d26:	e022                	sd	s0,0(sp)
    c0002d28:	0800                	addi	s0,sp,16
    c0002d2a:	30047073          	csrci	mstatus,8

00000000c0002d2e <.LBB4_6>:
    c0002d2e:	0007e517          	auipc	a0,0x7e
    c0002d32:	80a50513          	addi	a0,a0,-2038 # c0080538 <xSchedulerRunning>
    c0002d36:	6108                	ld	a0,0(a0)
    c0002d38:	4581                	li	a1,0
    c0002d3a:	02b50763          	beq	a0,a1,c0002d68 <.LBB4_7+0x26>
    c0002d3e:	0040006f          	j	c0002d42 <.LBB4_7>

00000000c0002d42 <.LBB4_7>:
    c0002d42:	0007d517          	auipc	a0,0x7d
    c0002d46:	7ce50513          	addi	a0,a0,1998 # c0080510 <pxCurrentTCB>
    c0002d4a:	610c                	ld	a1,0(a0)
    c0002d4c:	61d0                	ld	a2,128(a1)
    c0002d4e:	0605                	addi	a2,a2,1
    c0002d50:	e1d0                	sd	a2,128(a1)
    c0002d52:	6108                	ld	a0,0(a0)
    c0002d54:	6148                	ld	a0,128(a0)
    c0002d56:	4585                	li	a1,1
    c0002d58:	00b51663          	bne	a0,a1,c0002d64 <.LBB4_7+0x22>
    c0002d5c:	0040006f          	j	c0002d60 <.LBB4_7+0x1e>
    c0002d60:	0040006f          	j	c0002d64 <.LBB4_7+0x22>
    c0002d64:	0080006f          	j	c0002d6c <.LBB4_7+0x2a>
    c0002d68:	0040006f          	j	c0002d6c <.LBB4_7+0x2a>
    c0002d6c:	6402                	ld	s0,0(sp)
    c0002d6e:	60a2                	ld	ra,8(sp)
    c0002d70:	0141                	addi	sp,sp,16
    c0002d72:	8082                	ret

00000000c0002d74 <prvDeleteTCB>:
    c0002d74:	1101                	addi	sp,sp,-32
    c0002d76:	ec06                	sd	ra,24(sp)
    c0002d78:	e822                	sd	s0,16(sp)
    c0002d7a:	1000                	addi	s0,sp,32
    c0002d7c:	fea43423          	sd	a0,-24(s0)
    c0002d80:	fe843503          	ld	a0,-24(s0)
    c0002d84:	7128                	ld	a0,96(a0)
    c0002d86:	00007097          	auipc	ra,0x7
    c0002d8a:	e20080e7          	jalr	-480(ra) # c0009ba6 <vPortFree>
    c0002d8e:	fe843503          	ld	a0,-24(s0)
    c0002d92:	00007097          	auipc	ra,0x7
    c0002d96:	e14080e7          	jalr	-492(ra) # c0009ba6 <vPortFree>
    c0002d9a:	6442                	ld	s0,16(sp)
    c0002d9c:	60e2                	ld	ra,24(sp)
    c0002d9e:	6105                	addi	sp,sp,32
    c0002da0:	8082                	ret

00000000c0002da2 <prvResetNextTaskUnblockTime>:
    c0002da2:	1101                	addi	sp,sp,-32
    c0002da4:	ec06                	sd	ra,24(sp)
    c0002da6:	e822                	sd	s0,16(sp)
    c0002da8:	1000                	addi	s0,sp,32

00000000c0002daa <.LBB6_4>:
    c0002daa:	0007d517          	auipc	a0,0x7d
    c0002dae:	7a650513          	addi	a0,a0,1958 # c0080550 <pxDelayedTaskList>
    c0002db2:	6108                	ld	a0,0(a0)
    c0002db4:	6108                	ld	a0,0(a0)
    c0002db6:	4581                	li	a1,0
    c0002db8:	00b51c63          	bne	a0,a1,c0002dd0 <.LBB6_6>
    c0002dbc:	0040006f          	j	c0002dc0 <.LBB6_5>

00000000c0002dc0 <.LBB6_5>:
    c0002dc0:	0007d517          	auipc	a0,0x7d
    c0002dc4:	7a850513          	addi	a0,a0,1960 # c0080568 <xNextTaskUnblockTime>
    c0002dc8:	55fd                	li	a1,-1
    c0002dca:	e10c                	sd	a1,0(a0)
    c0002dcc:	02a0006f          	j	c0002df6 <.LBB6_7+0xe>

00000000c0002dd0 <.LBB6_6>:
    c0002dd0:	0007d517          	auipc	a0,0x7d
    c0002dd4:	78050513          	addi	a0,a0,1920 # c0080550 <pxDelayedTaskList>
    c0002dd8:	6108                	ld	a0,0(a0)
    c0002dda:	6d08                	ld	a0,24(a0)
    c0002ddc:	6d08                	ld	a0,24(a0)
    c0002dde:	fea43423          	sd	a0,-24(s0)
    c0002de2:	fe843503          	ld	a0,-24(s0)
    c0002de6:	6508                	ld	a0,8(a0)

00000000c0002de8 <.LBB6_7>:
    c0002de8:	0007d597          	auipc	a1,0x7d
    c0002dec:	78058593          	addi	a1,a1,1920 # c0080568 <xNextTaskUnblockTime>
    c0002df0:	e188                	sd	a0,0(a1)
    c0002df2:	0040006f          	j	c0002df6 <.LBB6_7+0xe>
    c0002df6:	6442                	ld	s0,16(sp)
    c0002df8:	60e2                	ld	ra,24(sp)
    c0002dfa:	6105                	addi	sp,sp,32
    c0002dfc:	8082                	ret

00000000c0002dfe <vTaskExitCritical>:
    c0002dfe:	1141                	addi	sp,sp,-16
    c0002e00:	e406                	sd	ra,8(sp)
    c0002e02:	e022                	sd	s0,0(sp)
    c0002e04:	0800                	addi	s0,sp,16

00000000c0002e06 <.LBB7_10>:
    c0002e06:	0007d517          	auipc	a0,0x7d
    c0002e0a:	73250513          	addi	a0,a0,1842 # c0080538 <xSchedulerRunning>
    c0002e0e:	6108                	ld	a0,0(a0)
    c0002e10:	4581                	li	a1,0
    c0002e12:	04b50a63          	beq	a0,a1,c0002e66 <.LBB7_12+0x36>
    c0002e16:	0040006f          	j	c0002e1a <.LBB7_11>

00000000c0002e1a <.LBB7_11>:
    c0002e1a:	0007d517          	auipc	a0,0x7d
    c0002e1e:	6f650513          	addi	a0,a0,1782 # c0080510 <pxCurrentTCB>
    c0002e22:	6108                	ld	a0,0(a0)
    c0002e24:	6148                	ld	a0,128(a0)
    c0002e26:	4581                	li	a1,0
    c0002e28:	02b50b63          	beq	a0,a1,c0002e5e <.LBB7_12+0x2e>
    c0002e2c:	0040006f          	j	c0002e30 <.LBB7_12>

00000000c0002e30 <.LBB7_12>:
    c0002e30:	0007d517          	auipc	a0,0x7d
    c0002e34:	6e050513          	addi	a0,a0,1760 # c0080510 <pxCurrentTCB>
    c0002e38:	610c                	ld	a1,0(a0)
    c0002e3a:	61d0                	ld	a2,128(a1)
    c0002e3c:	167d                	addi	a2,a2,-1
    c0002e3e:	e1d0                	sd	a2,128(a1)
    c0002e40:	6108                	ld	a0,0(a0)
    c0002e42:	6148                	ld	a0,128(a0)
    c0002e44:	4581                	li	a1,0
    c0002e46:	00b51863          	bne	a0,a1,c0002e56 <.LBB7_12+0x26>
    c0002e4a:	0040006f          	j	c0002e4e <.LBB7_12+0x1e>
    c0002e4e:	30046073          	csrsi	mstatus,8
    c0002e52:	0080006f          	j	c0002e5a <.LBB7_12+0x2a>
    c0002e56:	0040006f          	j	c0002e5a <.LBB7_12+0x2a>
    c0002e5a:	0080006f          	j	c0002e62 <.LBB7_12+0x32>
    c0002e5e:	0040006f          	j	c0002e62 <.LBB7_12+0x32>
    c0002e62:	0080006f          	j	c0002e6a <.LBB7_12+0x3a>
    c0002e66:	0040006f          	j	c0002e6a <.LBB7_12+0x3a>
    c0002e6a:	6402                	ld	s0,0(sp)
    c0002e6c:	60a2                	ld	ra,8(sp)
    c0002e6e:	0141                	addi	sp,sp,16
    c0002e70:	8082                	ret

00000000c0002e72 <vTaskDelayUntil>:
    c0002e72:	7139                	addi	sp,sp,-64
    c0002e74:	fc06                	sd	ra,56(sp)
    c0002e76:	f822                	sd	s0,48(sp)
    c0002e78:	0080                	addi	s0,sp,64
    c0002e7a:	fea43423          	sd	a0,-24(s0)
    c0002e7e:	feb43023          	sd	a1,-32(s0)
    c0002e82:	4501                	li	a0,0
    c0002e84:	fca43423          	sd	a0,-56(s0)
    c0002e88:	fe843583          	ld	a1,-24(s0)
    c0002e8c:	00a59b63          	bne	a1,a0,c0002ea2 <vTaskDelayUntil+0x30>
    c0002e90:	0040006f          	j	c0002e94 <vTaskDelayUntil+0x22>
    c0002e94:	30047073          	csrci	mstatus,8
    c0002e98:	9002                	ebreak
    c0002e9a:	0040006f          	j	c0002e9e <vTaskDelayUntil+0x2c>
    c0002e9e:	0000006f          	j	c0002e9e <vTaskDelayUntil+0x2c>
    c0002ea2:	fe043503          	ld	a0,-32(s0)
    c0002ea6:	4581                	li	a1,0
    c0002ea8:	00b51b63          	bne	a0,a1,c0002ebe <.LBB8_27>
    c0002eac:	0040006f          	j	c0002eb0 <vTaskDelayUntil+0x3e>
    c0002eb0:	30047073          	csrci	mstatus,8
    c0002eb4:	9002                	ebreak
    c0002eb6:	0040006f          	j	c0002eba <vTaskDelayUntil+0x48>
    c0002eba:	0000006f          	j	c0002eba <vTaskDelayUntil+0x48>

00000000c0002ebe <.LBB8_27>:
    c0002ebe:	0007d517          	auipc	a0,0x7d
    c0002ec2:	68250513          	addi	a0,a0,1666 # c0080540 <uxSchedulerSuspended>
    c0002ec6:	6108                	ld	a0,0(a0)
    c0002ec8:	4581                	li	a1,0
    c0002eca:	00b50b63          	beq	a0,a1,c0002ee0 <.LBB8_27+0x22>
    c0002ece:	0040006f          	j	c0002ed2 <.LBB8_27+0x14>
    c0002ed2:	30047073          	csrci	mstatus,8
    c0002ed6:	9002                	ebreak
    c0002ed8:	0040006f          	j	c0002edc <.LBB8_27+0x1e>
    c0002edc:	0000006f          	j	c0002edc <.LBB8_27+0x1e>
    c0002ee0:	00000097          	auipc	ra,0x0
    c0002ee4:	102080e7          	jalr	258(ra) # c0002fe2 <vTaskSuspendAll>

00000000c0002ee8 <.LBB8_28>:
    c0002ee8:	0007d517          	auipc	a0,0x7d
    c0002eec:	66050513          	addi	a0,a0,1632 # c0080548 <xTickCount>
    c0002ef0:	6108                	ld	a0,0(a0)
    c0002ef2:	fca43023          	sd	a0,-64(s0)
    c0002ef6:	fe843503          	ld	a0,-24(s0)
    c0002efa:	6108                	ld	a0,0(a0)
    c0002efc:	fe043583          	ld	a1,-32(s0)
    c0002f00:	952e                	add	a0,a0,a1
    c0002f02:	fca43c23          	sd	a0,-40(s0)
    c0002f06:	fc043503          	ld	a0,-64(s0)
    c0002f0a:	fe843583          	ld	a1,-24(s0)
    c0002f0e:	618c                	ld	a1,0(a1)
    c0002f10:	02b57e63          	bgeu	a0,a1,c0002f4c <.LBB8_28+0x64>
    c0002f14:	0040006f          	j	c0002f18 <.LBB8_28+0x30>
    c0002f18:	fd843503          	ld	a0,-40(s0)
    c0002f1c:	fe843583          	ld	a1,-24(s0)
    c0002f20:	618c                	ld	a1,0(a1)
    c0002f22:	02b57163          	bgeu	a0,a1,c0002f44 <.LBB8_28+0x5c>
    c0002f26:	0040006f          	j	c0002f2a <.LBB8_28+0x42>
    c0002f2a:	fd843503          	ld	a0,-40(s0)
    c0002f2e:	fc043583          	ld	a1,-64(s0)
    c0002f32:	00a5f963          	bgeu	a1,a0,c0002f44 <.LBB8_28+0x5c>
    c0002f36:	0040006f          	j	c0002f3a <.LBB8_28+0x52>
    c0002f3a:	4505                	li	a0,1
    c0002f3c:	fca43423          	sd	a0,-56(s0)
    c0002f40:	0080006f          	j	c0002f48 <.LBB8_28+0x60>
    c0002f44:	0040006f          	j	c0002f48 <.LBB8_28+0x60>
    c0002f48:	0380006f          	j	c0002f80 <.LBB8_28+0x98>
    c0002f4c:	fd843503          	ld	a0,-40(s0)
    c0002f50:	fe843583          	ld	a1,-24(s0)
    c0002f54:	618c                	ld	a1,0(a1)
    c0002f56:	00b56c63          	bltu	a0,a1,c0002f6e <.LBB8_28+0x86>
    c0002f5a:	0040006f          	j	c0002f5e <.LBB8_28+0x76>
    c0002f5e:	fd843503          	ld	a0,-40(s0)
    c0002f62:	fc043583          	ld	a1,-64(s0)
    c0002f66:	00a5f963          	bgeu	a1,a0,c0002f78 <.LBB8_28+0x90>
    c0002f6a:	0040006f          	j	c0002f6e <.LBB8_28+0x86>
    c0002f6e:	4505                	li	a0,1
    c0002f70:	fca43423          	sd	a0,-56(s0)
    c0002f74:	0080006f          	j	c0002f7c <.LBB8_28+0x94>
    c0002f78:	0040006f          	j	c0002f7c <.LBB8_28+0x94>
    c0002f7c:	0040006f          	j	c0002f80 <.LBB8_28+0x98>
    c0002f80:	fd843503          	ld	a0,-40(s0)
    c0002f84:	fe843583          	ld	a1,-24(s0)
    c0002f88:	e188                	sd	a0,0(a1)
    c0002f8a:	fc843503          	ld	a0,-56(s0)
    c0002f8e:	4581                	li	a1,0
    c0002f90:	02b50063          	beq	a0,a1,c0002fb0 <.LBB8_28+0xc8>
    c0002f94:	0040006f          	j	c0002f98 <.LBB8_28+0xb0>
    c0002f98:	fd843503          	ld	a0,-40(s0)
    c0002f9c:	fc043583          	ld	a1,-64(s0)
    c0002fa0:	8d0d                	sub	a0,a0,a1
    c0002fa2:	4581                	li	a1,0
    c0002fa4:	00000097          	auipc	ra,0x0
    c0002fa8:	05c080e7          	jalr	92(ra) # c0003000 <prvAddCurrentTaskToDelayedList>
    c0002fac:	0080006f          	j	c0002fb4 <.LBB8_28+0xcc>
    c0002fb0:	0040006f          	j	c0002fb4 <.LBB8_28+0xcc>
    c0002fb4:	00000097          	auipc	ra,0x0
    c0002fb8:	1aa080e7          	jalr	426(ra) # c000315e <xTaskResumeAll>
    c0002fbc:	fca43823          	sd	a0,-48(s0)
    c0002fc0:	fd043503          	ld	a0,-48(s0)
    c0002fc4:	4581                	li	a1,0
    c0002fc6:	00b51863          	bne	a0,a1,c0002fd6 <.LBB8_28+0xee>
    c0002fca:	0040006f          	j	c0002fce <.LBB8_28+0xe6>
    c0002fce:	00000073          	ecall
    c0002fd2:	0080006f          	j	c0002fda <.LBB8_28+0xf2>
    c0002fd6:	0040006f          	j	c0002fda <.LBB8_28+0xf2>
    c0002fda:	7442                	ld	s0,48(sp)
    c0002fdc:	70e2                	ld	ra,56(sp)
    c0002fde:	6121                	addi	sp,sp,64
    c0002fe0:	8082                	ret

00000000c0002fe2 <vTaskSuspendAll>:
    c0002fe2:	1141                	addi	sp,sp,-16
    c0002fe4:	e406                	sd	ra,8(sp)
    c0002fe6:	e022                	sd	s0,0(sp)
    c0002fe8:	0800                	addi	s0,sp,16

00000000c0002fea <.LBB9_1>:
    c0002fea:	0007d517          	auipc	a0,0x7d
    c0002fee:	55650513          	addi	a0,a0,1366 # c0080540 <uxSchedulerSuspended>
    c0002ff2:	610c                	ld	a1,0(a0)
    c0002ff4:	0585                	addi	a1,a1,1
    c0002ff6:	e10c                	sd	a1,0(a0)
    c0002ff8:	6402                	ld	s0,0(sp)
    c0002ffa:	60a2                	ld	ra,8(sp)
    c0002ffc:	0141                	addi	sp,sp,16
    c0002ffe:	8082                	ret

00000000c0003000 <prvAddCurrentTaskToDelayedList>:
    c0003000:	7139                	addi	sp,sp,-64
    c0003002:	fc06                	sd	ra,56(sp)
    c0003004:	f822                	sd	s0,48(sp)
    c0003006:	0080                	addi	s0,sp,64
    c0003008:	fea43423          	sd	a0,-24(s0)
    c000300c:	feb43023          	sd	a1,-32(s0)

00000000c0003010 <.LBB10_14>:
    c0003010:	0007d517          	auipc	a0,0x7d
    c0003014:	53850513          	addi	a0,a0,1336 # c0080548 <xTickCount>
    c0003018:	6108                	ld	a0,0(a0)
    c000301a:	fca43823          	sd	a0,-48(s0)

00000000c000301e <.LBB10_15>:
    c000301e:	0007d517          	auipc	a0,0x7d
    c0003022:	4f250513          	addi	a0,a0,1266 # c0080510 <pxCurrentTCB>
    c0003026:	610c                	ld	a1,0(a0)
    c0003028:	4601                	li	a2,0
    c000302a:	0ac588a3          	sb	a2,177(a1)
    c000302e:	6108                	ld	a0,0(a0)
    c0003030:	0521                	addi	a0,a0,8
    c0003032:	fcc43423          	sd	a2,-56(s0)
    c0003036:	ffffd097          	auipc	ra,0xffffd
    c000303a:	6ac080e7          	jalr	1708(ra) # c00006e2 <uxListRemove>
    c000303e:	fc843583          	ld	a1,-56(s0)
    c0003042:	02b51863          	bne	a0,a1,c0003072 <.LBB10_17+0x12>
    c0003046:	0040006f          	j	c000304a <.LBB10_16>

00000000c000304a <.LBB10_16>:
    c000304a:	0007d517          	auipc	a0,0x7d
    c000304e:	4c650513          	addi	a0,a0,1222 # c0080510 <pxCurrentTCB>
    c0003052:	6108                	ld	a0,0(a0)
    c0003054:	6d28                	ld	a0,88(a0)
    c0003056:	4585                	li	a1,1
    c0003058:	00a59533          	sll	a0,a1,a0
    c000305c:	fff54513          	not	a0,a0

00000000c0003060 <.LBB10_17>:
    c0003060:	0007d597          	auipc	a1,0x7d
    c0003064:	4b858593          	addi	a1,a1,1208 # c0080518 <uxTopReadyPriority>
    c0003068:	6190                	ld	a2,0(a1)
    c000306a:	8d71                	and	a0,a0,a2
    c000306c:	e188                	sd	a0,0(a1)
    c000306e:	0080006f          	j	c0003076 <.LBB10_17+0x16>
    c0003072:	0040006f          	j	c0003076 <.LBB10_17+0x16>
    c0003076:	fe843503          	ld	a0,-24(s0)
    c000307a:	55fd                	li	a1,-1
    c000307c:	02b51c63          	bne	a0,a1,c00030b4 <.LBB10_19+0x14>
    c0003080:	0040006f          	j	c0003084 <.LBB10_17+0x24>
    c0003084:	fe043503          	ld	a0,-32(s0)
    c0003088:	4581                	li	a1,0
    c000308a:	02b50563          	beq	a0,a1,c00030b4 <.LBB10_19+0x14>
    c000308e:	0040006f          	j	c0003092 <.LBB10_18>

00000000c0003092 <.LBB10_18>:
    c0003092:	0007d517          	auipc	a0,0x7d
    c0003096:	47e50513          	addi	a0,a0,1150 # c0080510 <pxCurrentTCB>
    c000309a:	6108                	ld	a0,0(a0)
    c000309c:	00850593          	addi	a1,a0,8

00000000c00030a0 <.LBB10_19>:
    c00030a0:	0007f517          	auipc	a0,0x7f
    c00030a4:	52050513          	addi	a0,a0,1312 # c00825c0 <xSuspendedTaskList>
    c00030a8:	ffffd097          	auipc	ra,0xffffd
    c00030ac:	526080e7          	jalr	1318(ra) # c00005ce <vListInsertEnd>
    c00030b0:	0a60006f          	j	c0003156 <.LBB10_26+0x1a>
    c00030b4:	fd043503          	ld	a0,-48(s0)
    c00030b8:	fe843583          	ld	a1,-24(s0)
    c00030bc:	952e                	add	a0,a0,a1
    c00030be:	fca43c23          	sd	a0,-40(s0)
    c00030c2:	fd843503          	ld	a0,-40(s0)

00000000c00030c6 <.LBB10_20>:
    c00030c6:	0007d597          	auipc	a1,0x7d
    c00030ca:	44a58593          	addi	a1,a1,1098 # c0080510 <pxCurrentTCB>
    c00030ce:	618c                	ld	a1,0(a1)
    c00030d0:	e588                	sd	a0,8(a1)
    c00030d2:	fd843503          	ld	a0,-40(s0)
    c00030d6:	fd043583          	ld	a1,-48(s0)
    c00030da:	02b57563          	bgeu	a0,a1,c0003104 <.LBB10_23>
    c00030de:	0040006f          	j	c00030e2 <.LBB10_21>

00000000c00030e2 <.LBB10_21>:
    c00030e2:	0007d517          	auipc	a0,0x7d
    c00030e6:	47650513          	addi	a0,a0,1142 # c0080558 <pxOverflowDelayedTaskList>
    c00030ea:	6108                	ld	a0,0(a0)

00000000c00030ec <.LBB10_22>:
    c00030ec:	0007d597          	auipc	a1,0x7d
    c00030f0:	42458593          	addi	a1,a1,1060 # c0080510 <pxCurrentTCB>
    c00030f4:	618c                	ld	a1,0(a1)
    c00030f6:	05a1                	addi	a1,a1,8
    c00030f8:	ffffd097          	auipc	ra,0xffffd
    c00030fc:	538080e7          	jalr	1336(ra) # c0000630 <vListInsert>
    c0003100:	0520006f          	j	c0003152 <.LBB10_26+0x16>

00000000c0003104 <.LBB10_23>:
    c0003104:	0007d517          	auipc	a0,0x7d
    c0003108:	44c50513          	addi	a0,a0,1100 # c0080550 <pxDelayedTaskList>
    c000310c:	6108                	ld	a0,0(a0)

00000000c000310e <.LBB10_24>:
    c000310e:	0007d597          	auipc	a1,0x7d
    c0003112:	40258593          	addi	a1,a1,1026 # c0080510 <pxCurrentTCB>
    c0003116:	618c                	ld	a1,0(a1)
    c0003118:	05a1                	addi	a1,a1,8
    c000311a:	ffffd097          	auipc	ra,0xffffd
    c000311e:	516080e7          	jalr	1302(ra) # c0000630 <vListInsert>
    c0003122:	fd843503          	ld	a0,-40(s0)

00000000c0003126 <.LBB10_25>:
    c0003126:	0007d597          	auipc	a1,0x7d
    c000312a:	44258593          	addi	a1,a1,1090 # c0080568 <xNextTaskUnblockTime>
    c000312e:	618c                	ld	a1,0(a1)
    c0003130:	00b57d63          	bgeu	a0,a1,c000314a <.LBB10_26+0xe>
    c0003134:	0040006f          	j	c0003138 <.LBB10_25+0x12>
    c0003138:	fd843503          	ld	a0,-40(s0)

00000000c000313c <.LBB10_26>:
    c000313c:	0007d597          	auipc	a1,0x7d
    c0003140:	42c58593          	addi	a1,a1,1068 # c0080568 <xNextTaskUnblockTime>
    c0003144:	e188                	sd	a0,0(a1)
    c0003146:	0080006f          	j	c000314e <.LBB10_26+0x12>
    c000314a:	0040006f          	j	c000314e <.LBB10_26+0x12>
    c000314e:	0040006f          	j	c0003152 <.LBB10_26+0x16>
    c0003152:	0040006f          	j	c0003156 <.LBB10_26+0x1a>
    c0003156:	7442                	ld	s0,48(sp)
    c0003158:	70e2                	ld	ra,56(sp)
    c000315a:	6121                	addi	sp,sp,64
    c000315c:	8082                	ret

00000000c000315e <xTaskResumeAll>:
    c000315e:	7139                	addi	sp,sp,-64
    c0003160:	fc06                	sd	ra,56(sp)
    c0003162:	f822                	sd	s0,48(sp)
    c0003164:	0080                	addi	s0,sp,64
    c0003166:	4501                	li	a0,0
    c0003168:	fea43423          	sd	a0,-24(s0)
    c000316c:	fea43023          	sd	a0,-32(s0)

00000000c0003170 <.LBB11_33>:
    c0003170:	0007d597          	auipc	a1,0x7d
    c0003174:	3d058593          	addi	a1,a1,976 # c0080540 <uxSchedulerSuspended>
    c0003178:	618c                	ld	a1,0(a1)
    c000317a:	00a59b63          	bne	a1,a0,c0003190 <.LBB11_33+0x20>
    c000317e:	0040006f          	j	c0003182 <.LBB11_33+0x12>
    c0003182:	30047073          	csrci	mstatus,8
    c0003186:	9002                	ebreak
    c0003188:	0040006f          	j	c000318c <.LBB11_33+0x1c>
    c000318c:	0000006f          	j	c000318c <.LBB11_33+0x1c>
    c0003190:	00000097          	auipc	ra,0x0
    c0003194:	b92080e7          	jalr	-1134(ra) # c0002d22 <vTaskEnterCritical>

00000000c0003198 <.LBB11_34>:
    c0003198:	0007d517          	auipc	a0,0x7d
    c000319c:	3a850513          	addi	a0,a0,936 # c0080540 <uxSchedulerSuspended>
    c00031a0:	610c                	ld	a1,0(a0)
    c00031a2:	15fd                	addi	a1,a1,-1
    c00031a4:	e10c                	sd	a1,0(a0)
    c00031a6:	6108                	ld	a0,0(a0)
    c00031a8:	4581                	li	a1,0
    c00031aa:	20b51c63          	bne	a0,a1,c00033c2 <.LBB11_52+0x2e>
    c00031ae:	0040006f          	j	c00031b2 <.LBB11_35>

00000000c00031b2 <.LBB11_35>:
    c00031b2:	0007d517          	auipc	a0,0x7d
    c00031b6:	37e50513          	addi	a0,a0,894 # c0080530 <uxCurrentNumberOfTasks>
    c00031ba:	6108                	ld	a0,0(a0)
    c00031bc:	4581                	li	a1,0
    c00031be:	20b50063          	beq	a0,a1,c00033be <.LBB11_52+0x2a>
    c00031c2:	0040006f          	j	c00031c6 <.LBB11_35+0x14>
    c00031c6:	0040006f          	j	c00031ca <.LBB11_36>

00000000c00031ca <.LBB11_36>:
    c00031ca:	0007f517          	auipc	a0,0x7f
    c00031ce:	41e50513          	addi	a0,a0,1054 # c00825e8 <xPendingReadyList>
    c00031d2:	6108                	ld	a0,0(a0)
    c00031d4:	4581                	li	a1,0
    c00031d6:	0ab50863          	beq	a0,a1,c0003286 <.LBB11_41+0x18>
    c00031da:	0040006f          	j	c00031de <.LBB11_37>

00000000c00031de <.LBB11_37>:
    c00031de:	0007f517          	auipc	a0,0x7f
    c00031e2:	40a50513          	addi	a0,a0,1034 # c00825e8 <xPendingReadyList>
    c00031e6:	6d08                	ld	a0,24(a0)
    c00031e8:	6d08                	ld	a0,24(a0)
    c00031ea:	fea43423          	sd	a0,-24(s0)
    c00031ee:	fe843503          	ld	a0,-24(s0)
    c00031f2:	03050513          	addi	a0,a0,48
    c00031f6:	ffffd097          	auipc	ra,0xffffd
    c00031fa:	4ec080e7          	jalr	1260(ra) # c00006e2 <uxListRemove>
    c00031fe:	fe843583          	ld	a1,-24(s0)
    c0003202:	05a1                	addi	a1,a1,8
    c0003204:	fca43823          	sd	a0,-48(s0)
    c0003208:	852e                	mv	a0,a1
    c000320a:	ffffd097          	auipc	ra,0xffffd
    c000320e:	4d8080e7          	jalr	1240(ra) # c00006e2 <uxListRemove>
    c0003212:	fe843583          	ld	a1,-24(s0)
    c0003216:	6dac                	ld	a1,88(a1)
    c0003218:	4605                	li	a2,1
    c000321a:	00b615b3          	sll	a1,a2,a1

00000000c000321e <.LBB11_38>:
    c000321e:	0007d617          	auipc	a2,0x7d
    c0003222:	2fa60613          	addi	a2,a2,762 # c0080518 <uxTopReadyPriority>
    c0003226:	6214                	ld	a3,0(a2)
    c0003228:	8dd5                	or	a1,a1,a3
    c000322a:	e20c                	sd	a1,0(a2)
    c000322c:	fe843583          	ld	a1,-24(s0)
    c0003230:	6db0                	ld	a2,88(a1)
    c0003232:	02800693          	li	a3,40
    c0003236:	02d60633          	mul	a2,a2,a3

00000000c000323a <.LBB11_39>:
    c000323a:	0007f697          	auipc	a3,0x7f
    c000323e:	29668693          	addi	a3,a3,662 # c00824d0 <pxReadyTasksLists>
    c0003242:	9636                	add	a2,a2,a3
    c0003244:	05a1                	addi	a1,a1,8
    c0003246:	fca43423          	sd	a0,-56(s0)
    c000324a:	8532                	mv	a0,a2
    c000324c:	ffffd097          	auipc	ra,0xffffd
    c0003250:	382080e7          	jalr	898(ra) # c00005ce <vListInsertEnd>
    c0003254:	fe843503          	ld	a0,-24(s0)
    c0003258:	6d28                	ld	a0,88(a0)

00000000c000325a <.LBB11_40>:
    c000325a:	0007d597          	auipc	a1,0x7d
    c000325e:	2b658593          	addi	a1,a1,694 # c0080510 <pxCurrentTCB>
    c0003262:	618c                	ld	a1,0(a1)
    c0003264:	6dac                	ld	a1,88(a1)
    c0003266:	00b56c63          	bltu	a0,a1,c000327e <.LBB11_41+0x10>
    c000326a:	0040006f          	j	c000326e <.LBB11_41>

00000000c000326e <.LBB11_41>:
    c000326e:	0007d517          	auipc	a0,0x7d
    c0003272:	30250513          	addi	a0,a0,770 # c0080570 <xYieldPending>
    c0003276:	4585                	li	a1,1
    c0003278:	e10c                	sd	a1,0(a0)
    c000327a:	0080006f          	j	c0003282 <.LBB11_41+0x14>
    c000327e:	0040006f          	j	c0003282 <.LBB11_41+0x14>
    c0003282:	f49ff06f          	j	c00031ca <.LBB11_36>
    c0003286:	fe843503          	ld	a0,-24(s0)
    c000328a:	4581                	li	a1,0
    c000328c:	00b50a63          	beq	a0,a1,c00032a0 <.LBB11_41+0x32>
    c0003290:	0040006f          	j	c0003294 <.LBB11_41+0x26>
    c0003294:	00000097          	auipc	ra,0x0
    c0003298:	b0e080e7          	jalr	-1266(ra) # c0002da2 <prvResetNextTaskUnblockTime>
    c000329c:	0040006f          	j	c00032a0 <.LBB11_41+0x32>
    c00032a0:	0040006f          	j	c00032a4 <.LBB11_42>

00000000c00032a4 <.LBB11_42>:
    c00032a4:	0007d517          	auipc	a0,0x7d
    c00032a8:	2d450513          	addi	a0,a0,724 # c0080578 <xPendedTicks>
    c00032ac:	6108                	ld	a0,0(a0)
    c00032ae:	4581                	li	a1,0
    c00032b0:	0eb50263          	beq	a0,a1,c0003394 <.LBB11_52>
    c00032b4:	0040006f          	j	c00032b8 <.LBB11_43>

00000000c00032b8 <.LBB11_43>:
    c00032b8:	0007d517          	auipc	a0,0x7d
    c00032bc:	2b050513          	addi	a0,a0,688 # c0080568 <xNextTaskUnblockTime>
    c00032c0:	6108                	ld	a0,0(a0)

00000000c00032c2 <.LBB11_44>:
    c00032c2:	0007d597          	auipc	a1,0x7d
    c00032c6:	28658593          	addi	a1,a1,646 # c0080548 <xTickCount>
    c00032ca:	618c                	ld	a1,0(a1)
    c00032cc:	00b57b63          	bgeu	a0,a1,c00032e2 <.LBB11_45>
    c00032d0:	0040006f          	j	c00032d4 <.LBB11_44+0x12>
    c00032d4:	30047073          	csrci	mstatus,8
    c00032d8:	9002                	ebreak
    c00032da:	0040006f          	j	c00032de <.LBB11_44+0x1c>
    c00032de:	0000006f          	j	c00032de <.LBB11_44+0x1c>

00000000c00032e2 <.LBB11_45>:
    c00032e2:	0007d517          	auipc	a0,0x7d
    c00032e6:	28650513          	addi	a0,a0,646 # c0080568 <xNextTaskUnblockTime>
    c00032ea:	6108                	ld	a0,0(a0)

00000000c00032ec <.LBB11_46>:
    c00032ec:	0007d597          	auipc	a1,0x7d
    c00032f0:	25c58593          	addi	a1,a1,604 # c0080548 <xTickCount>
    c00032f4:	618c                	ld	a1,0(a1)
    c00032f6:	8d0d                	sub	a0,a0,a1
    c00032f8:	fca43c23          	sd	a0,-40(s0)
    c00032fc:	fd843503          	ld	a0,-40(s0)

00000000c0003300 <.LBB11_47>:
    c0003300:	0007d597          	auipc	a1,0x7d
    c0003304:	27858593          	addi	a1,a1,632 # c0080578 <xPendedTicks>
    c0003308:	618c                	ld	a1,0(a1)
    c000330a:	00a5fd63          	bgeu	a1,a0,c0003324 <.LBB11_48+0x12>
    c000330e:	0040006f          	j	c0003312 <.LBB11_48>

00000000c0003312 <.LBB11_48>:
    c0003312:	0007d517          	auipc	a0,0x7d
    c0003316:	26650513          	addi	a0,a0,614 # c0080578 <xPendedTicks>
    c000331a:	6108                	ld	a0,0(a0)
    c000331c:	fca43c23          	sd	a0,-40(s0)
    c0003320:	0040006f          	j	c0003324 <.LBB11_48+0x12>
    c0003324:	fd843503          	ld	a0,-40(s0)
    c0003328:	4581                	li	a1,0
    c000332a:	00b51963          	bne	a0,a1,c000333c <.LBB11_48+0x2a>
    c000332e:	0040006f          	j	c0003332 <.LBB11_48+0x20>
    c0003332:	4505                	li	a0,1
    c0003334:	fca43c23          	sd	a0,-40(s0)
    c0003338:	02e0006f          	j	c0003366 <.LBB11_49+0x18>
    c000333c:	fd843503          	ld	a0,-40(s0)
    c0003340:	4589                	li	a1,2
    c0003342:	02b56063          	bltu	a0,a1,c0003362 <.LBB11_49+0x14>
    c0003346:	0040006f          	j	c000334a <.LBB11_48+0x38>
    c000334a:	fd843503          	ld	a0,-40(s0)

00000000c000334e <.LBB11_49>:
    c000334e:	0007d597          	auipc	a1,0x7d
    c0003352:	1fa58593          	addi	a1,a1,506 # c0080548 <xTickCount>
    c0003356:	6190                	ld	a2,0(a1)
    c0003358:	9532                	add	a0,a0,a2
    c000335a:	157d                	addi	a0,a0,-1
    c000335c:	e188                	sd	a0,0(a1)
    c000335e:	0040006f          	j	c0003362 <.LBB11_49+0x14>
    c0003362:	0040006f          	j	c0003366 <.LBB11_49+0x18>
    c0003366:	00001097          	auipc	ra,0x1
    c000336a:	dea080e7          	jalr	-534(ra) # c0004150 <xTaskIncrementTick>

00000000c000336e <.LBB11_50>:
    c000336e:	0007d597          	auipc	a1,0x7d
    c0003372:	20258593          	addi	a1,a1,514 # c0080570 <xYieldPending>
    c0003376:	6190                	ld	a2,0(a1)
    c0003378:	8d51                	or	a0,a0,a2
    c000337a:	e188                	sd	a0,0(a1)
    c000337c:	fd843503          	ld	a0,-40(s0)

00000000c0003380 <.LBB11_51>:
    c0003380:	0007d597          	auipc	a1,0x7d
    c0003384:	1f858593          	addi	a1,a1,504 # c0080578 <xPendedTicks>
    c0003388:	6190                	ld	a2,0(a1)
    c000338a:	40a60533          	sub	a0,a2,a0
    c000338e:	e188                	sd	a0,0(a1)
    c0003390:	f15ff06f          	j	c00032a4 <.LBB11_42>

00000000c0003394 <.LBB11_52>:
    c0003394:	0007d517          	auipc	a0,0x7d
    c0003398:	1dc50513          	addi	a0,a0,476 # c0080570 <xYieldPending>
    c000339c:	6108                	ld	a0,0(a0)
    c000339e:	4581                	li	a1,0
    c00033a0:	00b50b63          	beq	a0,a1,c00033b6 <.LBB11_52+0x22>
    c00033a4:	0040006f          	j	c00033a8 <.LBB11_52+0x14>
    c00033a8:	4505                	li	a0,1
    c00033aa:	fea43023          	sd	a0,-32(s0)
    c00033ae:	00000073          	ecall
    c00033b2:	0080006f          	j	c00033ba <.LBB11_52+0x26>
    c00033b6:	0040006f          	j	c00033ba <.LBB11_52+0x26>
    c00033ba:	0040006f          	j	c00033be <.LBB11_52+0x2a>
    c00033be:	0080006f          	j	c00033c6 <.LBB11_52+0x32>
    c00033c2:	0040006f          	j	c00033c6 <.LBB11_52+0x32>
    c00033c6:	00000097          	auipc	ra,0x0
    c00033ca:	a38080e7          	jalr	-1480(ra) # c0002dfe <vTaskExitCritical>
    c00033ce:	fe043503          	ld	a0,-32(s0)
    c00033d2:	7442                	ld	s0,48(sp)
    c00033d4:	70e2                	ld	ra,56(sp)
    c00033d6:	6121                	addi	sp,sp,64
    c00033d8:	8082                	ret

00000000c00033da <vTaskDelay>:
    c00033da:	1101                	addi	sp,sp,-32
    c00033dc:	ec06                	sd	ra,24(sp)
    c00033de:	e822                	sd	s0,16(sp)
    c00033e0:	1000                	addi	s0,sp,32
    c00033e2:	fea43423          	sd	a0,-24(s0)
    c00033e6:	4501                	li	a0,0
    c00033e8:	fea43023          	sd	a0,-32(s0)
    c00033ec:	fe843583          	ld	a1,-24(s0)
    c00033f0:	04a58863          	beq	a1,a0,c0003440 <.LBB12_10+0x48>
    c00033f4:	0040006f          	j	c00033f8 <.LBB12_10>

00000000c00033f8 <.LBB12_10>:
    c00033f8:	0007d517          	auipc	a0,0x7d
    c00033fc:	14850513          	addi	a0,a0,328 # c0080540 <uxSchedulerSuspended>
    c0003400:	6108                	ld	a0,0(a0)
    c0003402:	4581                	li	a1,0
    c0003404:	00b50b63          	beq	a0,a1,c000341a <.LBB12_10+0x22>
    c0003408:	0040006f          	j	c000340c <.LBB12_10+0x14>
    c000340c:	30047073          	csrci	mstatus,8
    c0003410:	9002                	ebreak
    c0003412:	0040006f          	j	c0003416 <.LBB12_10+0x1e>
    c0003416:	0000006f          	j	c0003416 <.LBB12_10+0x1e>
    c000341a:	00000097          	auipc	ra,0x0
    c000341e:	bc8080e7          	jalr	-1080(ra) # c0002fe2 <vTaskSuspendAll>
    c0003422:	fe843503          	ld	a0,-24(s0)
    c0003426:	4581                	li	a1,0
    c0003428:	00000097          	auipc	ra,0x0
    c000342c:	bd8080e7          	jalr	-1064(ra) # c0003000 <prvAddCurrentTaskToDelayedList>
    c0003430:	00000097          	auipc	ra,0x0
    c0003434:	d2e080e7          	jalr	-722(ra) # c000315e <xTaskResumeAll>
    c0003438:	fea43023          	sd	a0,-32(s0)
    c000343c:	0080006f          	j	c0003444 <.LBB12_10+0x4c>
    c0003440:	0040006f          	j	c0003444 <.LBB12_10+0x4c>
    c0003444:	fe043503          	ld	a0,-32(s0)
    c0003448:	4581                	li	a1,0
    c000344a:	00b51863          	bne	a0,a1,c000345a <.LBB12_10+0x62>
    c000344e:	0040006f          	j	c0003452 <.LBB12_10+0x5a>
    c0003452:	00000073          	ecall
    c0003456:	0080006f          	j	c000345e <.LBB12_10+0x66>
    c000345a:	0040006f          	j	c000345e <.LBB12_10+0x66>
    c000345e:	6442                	ld	s0,16(sp)
    c0003460:	60e2                	ld	ra,24(sp)
    c0003462:	6105                	addi	sp,sp,32
    c0003464:	8082                	ret

00000000c0003466 <eTaskGetState>:
    c0003466:	7139                	addi	sp,sp,-64
    c0003468:	fc06                	sd	ra,56(sp)
    c000346a:	f822                	sd	s0,48(sp)
    c000346c:	0080                	addi	s0,sp,64
    c000346e:	fea43423          	sd	a0,-24(s0)
    c0003472:	fe843503          	ld	a0,-24(s0)
    c0003476:	fca43023          	sd	a0,-64(s0)
    c000347a:	fc043503          	ld	a0,-64(s0)
    c000347e:	4581                	li	a1,0
    c0003480:	00b51b63          	bne	a0,a1,c0003496 <eTaskGetState+0x30>
    c0003484:	0040006f          	j	c0003488 <eTaskGetState+0x22>
    c0003488:	30047073          	csrci	mstatus,8
    c000348c:	9002                	ebreak
    c000348e:	0040006f          	j	c0003492 <eTaskGetState+0x2c>
    c0003492:	0000006f          	j	c0003492 <eTaskGetState+0x2c>
    c0003496:	fc043503          	ld	a0,-64(s0)

00000000c000349a <.LBB13_24>:
    c000349a:	0007d597          	auipc	a1,0x7d
    c000349e:	07658593          	addi	a1,a1,118 # c0080510 <pxCurrentTCB>
    c00034a2:	618c                	ld	a1,0(a1)
    c00034a4:	00b51963          	bne	a0,a1,c00034b6 <.LBB13_24+0x1c>
    c00034a8:	0040006f          	j	c00034ac <.LBB13_24+0x12>
    c00034ac:	4501                	li	a0,0
    c00034ae:	fea42223          	sw	a0,-28(s0)
    c00034b2:	1020006f          	j	c00035b4 <.LBB13_28+0x3e>
    c00034b6:	00000097          	auipc	ra,0x0
    c00034ba:	86c080e7          	jalr	-1940(ra) # c0002d22 <vTaskEnterCritical>
    c00034be:	fc043503          	ld	a0,-64(s0)
    c00034c2:	7508                	ld	a0,40(a0)
    c00034c4:	fca43c23          	sd	a0,-40(s0)

00000000c00034c8 <.LBB13_25>:
    c00034c8:	0007d517          	auipc	a0,0x7d
    c00034cc:	08850513          	addi	a0,a0,136 # c0080550 <pxDelayedTaskList>
    c00034d0:	6108                	ld	a0,0(a0)
    c00034d2:	fca43823          	sd	a0,-48(s0)

00000000c00034d6 <.LBB13_26>:
    c00034d6:	0007d517          	auipc	a0,0x7d
    c00034da:	08250513          	addi	a0,a0,130 # c0080558 <pxOverflowDelayedTaskList>
    c00034de:	6108                	ld	a0,0(a0)
    c00034e0:	fca43423          	sd	a0,-56(s0)
    c00034e4:	00000097          	auipc	ra,0x0
    c00034e8:	91a080e7          	jalr	-1766(ra) # c0002dfe <vTaskExitCritical>
    c00034ec:	fd843503          	ld	a0,-40(s0)
    c00034f0:	fd043583          	ld	a1,-48(s0)
    c00034f4:	00b50c63          	beq	a0,a1,c000350c <.LBB13_26+0x36>
    c00034f8:	0040006f          	j	c00034fc <.LBB13_26+0x26>
    c00034fc:	fd843503          	ld	a0,-40(s0)
    c0003500:	fc843583          	ld	a1,-56(s0)
    c0003504:	00b51963          	bne	a0,a1,c0003516 <.LBB13_26+0x40>
    c0003508:	0040006f          	j	c000350c <.LBB13_26+0x36>
    c000350c:	4509                	li	a0,2
    c000350e:	fea42223          	sw	a0,-28(s0)
    c0003512:	09e0006f          	j	c00035b0 <.LBB13_28+0x3a>
    c0003516:	fd843503          	ld	a0,-40(s0)

00000000c000351a <.LBB13_27>:
    c000351a:	0007f597          	auipc	a1,0x7f
    c000351e:	0a658593          	addi	a1,a1,166 # c00825c0 <xSuspendedTaskList>
    c0003522:	04b51863          	bne	a0,a1,c0003572 <.LBB13_27+0x58>
    c0003526:	0040006f          	j	c000352a <.LBB13_27+0x10>
    c000352a:	fc043503          	ld	a0,-64(s0)
    c000352e:	6928                	ld	a0,80(a0)
    c0003530:	4581                	li	a1,0
    c0003532:	02b51963          	bne	a0,a1,c0003564 <.LBB13_27+0x4a>
    c0003536:	0040006f          	j	c000353a <.LBB13_27+0x20>
    c000353a:	fc043503          	ld	a0,-64(s0)
    c000353e:	0b054503          	lbu	a0,176(a0)
    c0003542:	4585                	li	a1,1
    c0003544:	00b51963          	bne	a0,a1,c0003556 <.LBB13_27+0x3c>
    c0003548:	0040006f          	j	c000354c <.LBB13_27+0x32>
    c000354c:	4509                	li	a0,2
    c000354e:	fea42223          	sw	a0,-28(s0)
    c0003552:	00e0006f          	j	c0003560 <.LBB13_27+0x46>
    c0003556:	450d                	li	a0,3
    c0003558:	fea42223          	sw	a0,-28(s0)
    c000355c:	0040006f          	j	c0003560 <.LBB13_27+0x46>
    c0003560:	00e0006f          	j	c000356e <.LBB13_27+0x54>
    c0003564:	4509                	li	a0,2
    c0003566:	fea42223          	sw	a0,-28(s0)
    c000356a:	0040006f          	j	c000356e <.LBB13_27+0x54>
    c000356e:	03e0006f          	j	c00035ac <.LBB13_28+0x36>
    c0003572:	fd843503          	ld	a0,-40(s0)

00000000c0003576 <.LBB13_28>:
    c0003576:	0007f597          	auipc	a1,0x7f
    c000357a:	02258593          	addi	a1,a1,34 # c0082598 <xTasksWaitingTermination>
    c000357e:	00b50b63          	beq	a0,a1,c0003594 <.LBB13_28+0x1e>
    c0003582:	0040006f          	j	c0003586 <.LBB13_28+0x10>
    c0003586:	fd843503          	ld	a0,-40(s0)
    c000358a:	4581                	li	a1,0
    c000358c:	00b51963          	bne	a0,a1,c000359e <.LBB13_28+0x28>
    c0003590:	0040006f          	j	c0003594 <.LBB13_28+0x1e>
    c0003594:	4511                	li	a0,4
    c0003596:	fea42223          	sw	a0,-28(s0)
    c000359a:	00e0006f          	j	c00035a8 <.LBB13_28+0x32>
    c000359e:	4505                	li	a0,1
    c00035a0:	fea42223          	sw	a0,-28(s0)
    c00035a4:	0040006f          	j	c00035a8 <.LBB13_28+0x32>
    c00035a8:	0040006f          	j	c00035ac <.LBB13_28+0x36>
    c00035ac:	0040006f          	j	c00035b0 <.LBB13_28+0x3a>
    c00035b0:	0040006f          	j	c00035b4 <.LBB13_28+0x3e>
    c00035b4:	fe442503          	lw	a0,-28(s0)
    c00035b8:	7442                	ld	s0,48(sp)
    c00035ba:	70e2                	ld	ra,56(sp)
    c00035bc:	6121                	addi	sp,sp,64
    c00035be:	8082                	ret

00000000c00035c0 <uxTaskPriorityGet>:
    c00035c0:	7179                	addi	sp,sp,-48
    c00035c2:	f406                	sd	ra,40(sp)
    c00035c4:	f022                	sd	s0,32(sp)
    c00035c6:	1800                	addi	s0,sp,48
    c00035c8:	fea43423          	sd	a0,-24(s0)
    c00035cc:	fffff097          	auipc	ra,0xfffff
    c00035d0:	756080e7          	jalr	1878(ra) # c0002d22 <vTaskEnterCritical>
    c00035d4:	fe843503          	ld	a0,-24(s0)
    c00035d8:	4581                	li	a1,0
    c00035da:	00b51d63          	bne	a0,a1,c00035f4 <.LBB14_4+0x12>
    c00035de:	0040006f          	j	c00035e2 <.LBB14_4>

00000000c00035e2 <.LBB14_4>:
    c00035e2:	0007d517          	auipc	a0,0x7d
    c00035e6:	f2e50513          	addi	a0,a0,-210 # c0080510 <pxCurrentTCB>
    c00035ea:	6108                	ld	a0,0(a0)
    c00035ec:	fca43823          	sd	a0,-48(s0)
    c00035f0:	0100006f          	j	c0003600 <.LBB14_4+0x1e>
    c00035f4:	fe843503          	ld	a0,-24(s0)
    c00035f8:	fca43823          	sd	a0,-48(s0)
    c00035fc:	0040006f          	j	c0003600 <.LBB14_4+0x1e>
    c0003600:	fd043503          	ld	a0,-48(s0)
    c0003604:	fea43023          	sd	a0,-32(s0)
    c0003608:	fe043503          	ld	a0,-32(s0)
    c000360c:	6d28                	ld	a0,88(a0)
    c000360e:	fca43c23          	sd	a0,-40(s0)
    c0003612:	fffff097          	auipc	ra,0xfffff
    c0003616:	7ec080e7          	jalr	2028(ra) # c0002dfe <vTaskExitCritical>
    c000361a:	fd843503          	ld	a0,-40(s0)
    c000361e:	7402                	ld	s0,32(sp)
    c0003620:	70a2                	ld	ra,40(sp)
    c0003622:	6145                	addi	sp,sp,48
    c0003624:	8082                	ret

00000000c0003626 <uxTaskPriorityGetFromISR>:
    c0003626:	7139                	addi	sp,sp,-64
    c0003628:	fc06                	sd	ra,56(sp)
    c000362a:	f822                	sd	s0,48(sp)
    c000362c:	0080                	addi	s0,sp,64
    c000362e:	fea43423          	sd	a0,-24(s0)
    c0003632:	4501                	li	a0,0
    c0003634:	fca43823          	sd	a0,-48(s0)
    c0003638:	fe843583          	ld	a1,-24(s0)
    c000363c:	00a59d63          	bne	a1,a0,c0003656 <.LBB15_4+0x12>
    c0003640:	0040006f          	j	c0003644 <.LBB15_4>

00000000c0003644 <.LBB15_4>:
    c0003644:	0007d517          	auipc	a0,0x7d
    c0003648:	ecc50513          	addi	a0,a0,-308 # c0080510 <pxCurrentTCB>
    c000364c:	6108                	ld	a0,0(a0)
    c000364e:	fca43423          	sd	a0,-56(s0)
    c0003652:	0100006f          	j	c0003662 <.LBB15_4+0x1e>
    c0003656:	fe843503          	ld	a0,-24(s0)
    c000365a:	fca43423          	sd	a0,-56(s0)
    c000365e:	0040006f          	j	c0003662 <.LBB15_4+0x1e>
    c0003662:	fc843503          	ld	a0,-56(s0)
    c0003666:	fea43023          	sd	a0,-32(s0)
    c000366a:	fe043503          	ld	a0,-32(s0)
    c000366e:	6d28                	ld	a0,88(a0)
    c0003670:	fca43c23          	sd	a0,-40(s0)
    c0003674:	fd843503          	ld	a0,-40(s0)
    c0003678:	7442                	ld	s0,48(sp)
    c000367a:	70e2                	ld	ra,56(sp)
    c000367c:	6121                	addi	sp,sp,64
    c000367e:	8082                	ret

00000000c0003680 <vTaskPrioritySet>:
    c0003680:	715d                	addi	sp,sp,-80
    c0003682:	e486                	sd	ra,72(sp)
    c0003684:	e0a2                	sd	s0,64(sp)
    c0003686:	0880                	addi	s0,sp,80
    c0003688:	fea43423          	sd	a0,-24(s0)
    c000368c:	feb43023          	sd	a1,-32(s0)
    c0003690:	4501                	li	a0,0
    c0003692:	fca43023          	sd	a0,-64(s0)
    c0003696:	fe043503          	ld	a0,-32(s0)
    c000369a:	4595                	li	a1,5
    c000369c:	00b56b63          	bltu	a0,a1,c00036b2 <vTaskPrioritySet+0x32>
    c00036a0:	0040006f          	j	c00036a4 <vTaskPrioritySet+0x24>
    c00036a4:	30047073          	csrci	mstatus,8
    c00036a8:	9002                	ebreak
    c00036aa:	0040006f          	j	c00036ae <vTaskPrioritySet+0x2e>
    c00036ae:	0000006f          	j	c00036ae <vTaskPrioritySet+0x2e>
    c00036b2:	fe043503          	ld	a0,-32(s0)
    c00036b6:	4595                	li	a1,5
    c00036b8:	00b56963          	bltu	a0,a1,c00036ca <vTaskPrioritySet+0x4a>
    c00036bc:	0040006f          	j	c00036c0 <vTaskPrioritySet+0x40>
    c00036c0:	4511                	li	a0,4
    c00036c2:	fea43023          	sd	a0,-32(s0)
    c00036c6:	0080006f          	j	c00036ce <vTaskPrioritySet+0x4e>
    c00036ca:	0040006f          	j	c00036ce <vTaskPrioritySet+0x4e>
    c00036ce:	fffff097          	auipc	ra,0xfffff
    c00036d2:	654080e7          	jalr	1620(ra) # c0002d22 <vTaskEnterCritical>
    c00036d6:	fe843503          	ld	a0,-24(s0)
    c00036da:	4581                	li	a1,0
    c00036dc:	00b51d63          	bne	a0,a1,c00036f6 <.LBB16_39+0x12>
    c00036e0:	0040006f          	j	c00036e4 <.LBB16_39>

00000000c00036e4 <.LBB16_39>:
    c00036e4:	0007d517          	auipc	a0,0x7d
    c00036e8:	e2c50513          	addi	a0,a0,-468 # c0080510 <pxCurrentTCB>
    c00036ec:	6108                	ld	a0,0(a0)
    c00036ee:	faa43c23          	sd	a0,-72(s0)
    c00036f2:	0100006f          	j	c0003702 <.LBB16_39+0x1e>
    c00036f6:	fe843503          	ld	a0,-24(s0)
    c00036fa:	faa43c23          	sd	a0,-72(s0)
    c00036fe:	0040006f          	j	c0003702 <.LBB16_39+0x1e>
    c0003702:	fb843503          	ld	a0,-72(s0)
    c0003706:	fca43c23          	sd	a0,-40(s0)
    c000370a:	fd843503          	ld	a0,-40(s0)
    c000370e:	6d48                	ld	a0,152(a0)
    c0003710:	fca43823          	sd	a0,-48(s0)
    c0003714:	fd043503          	ld	a0,-48(s0)
    c0003718:	fe043583          	ld	a1,-32(s0)
    c000371c:	1ab50c63          	beq	a0,a1,c00038d4 <.LBB16_46+0x44>
    c0003720:	0040006f          	j	c0003724 <.LBB16_39+0x40>
    c0003724:	fe043503          	ld	a0,-32(s0)
    c0003728:	fd043583          	ld	a1,-48(s0)
    c000372c:	04a5f863          	bgeu	a1,a0,c000377c <.LBB16_41+0x2e>
    c0003730:	0040006f          	j	c0003734 <.LBB16_39+0x50>
    c0003734:	fd843503          	ld	a0,-40(s0)

00000000c0003738 <.LBB16_40>:
    c0003738:	0007d597          	auipc	a1,0x7d
    c000373c:	dd858593          	addi	a1,a1,-552 # c0080510 <pxCurrentTCB>
    c0003740:	618c                	ld	a1,0(a1)
    c0003742:	02b50963          	beq	a0,a1,c0003774 <.LBB16_41+0x26>
    c0003746:	0040006f          	j	c000374a <.LBB16_40+0x12>
    c000374a:	fe043503          	ld	a0,-32(s0)

00000000c000374e <.LBB16_41>:
    c000374e:	0007d597          	auipc	a1,0x7d
    c0003752:	dc258593          	addi	a1,a1,-574 # c0080510 <pxCurrentTCB>
    c0003756:	618c                	ld	a1,0(a1)
    c0003758:	6dac                	ld	a1,88(a1)
    c000375a:	00b56963          	bltu	a0,a1,c000376c <.LBB16_41+0x1e>
    c000375e:	0040006f          	j	c0003762 <.LBB16_41+0x14>
    c0003762:	4505                	li	a0,1
    c0003764:	fca43023          	sd	a0,-64(s0)
    c0003768:	0080006f          	j	c0003770 <.LBB16_41+0x22>
    c000376c:	0040006f          	j	c0003770 <.LBB16_41+0x22>
    c0003770:	0080006f          	j	c0003778 <.LBB16_41+0x2a>
    c0003774:	0040006f          	j	c0003778 <.LBB16_41+0x2a>
    c0003778:	02c0006f          	j	c00037a4 <.LBB16_42+0x24>
    c000377c:	fd843503          	ld	a0,-40(s0)

00000000c0003780 <.LBB16_42>:
    c0003780:	0007d597          	auipc	a1,0x7d
    c0003784:	d9058593          	addi	a1,a1,-624 # c0080510 <pxCurrentTCB>
    c0003788:	618c                	ld	a1,0(a1)
    c000378a:	00b51963          	bne	a0,a1,c000379c <.LBB16_42+0x1c>
    c000378e:	0040006f          	j	c0003792 <.LBB16_42+0x12>
    c0003792:	4505                	li	a0,1
    c0003794:	fca43023          	sd	a0,-64(s0)
    c0003798:	0080006f          	j	c00037a0 <.LBB16_42+0x20>
    c000379c:	0040006f          	j	c00037a0 <.LBB16_42+0x20>
    c00037a0:	0040006f          	j	c00037a4 <.LBB16_42+0x24>
    c00037a4:	fd843503          	ld	a0,-40(s0)
    c00037a8:	6d28                	ld	a0,88(a0)
    c00037aa:	fca43423          	sd	a0,-56(s0)
    c00037ae:	fd843503          	ld	a0,-40(s0)
    c00037b2:	6d4c                	ld	a1,152(a0)
    c00037b4:	6d28                	ld	a0,88(a0)
    c00037b6:	00a59b63          	bne	a1,a0,c00037cc <.LBB16_42+0x4c>
    c00037ba:	0040006f          	j	c00037be <.LBB16_42+0x3e>
    c00037be:	fe043503          	ld	a0,-32(s0)
    c00037c2:	fd843583          	ld	a1,-40(s0)
    c00037c6:	eda8                	sd	a0,88(a1)
    c00037c8:	0080006f          	j	c00037d0 <.LBB16_42+0x50>
    c00037cc:	0040006f          	j	c00037d0 <.LBB16_42+0x50>
    c00037d0:	fe043503          	ld	a0,-32(s0)
    c00037d4:	fd843583          	ld	a1,-40(s0)
    c00037d8:	edc8                	sd	a0,152(a1)
    c00037da:	fd843503          	ld	a0,-40(s0)
    c00037de:	03354503          	lbu	a0,51(a0)
    c00037e2:	08057513          	andi	a0,a0,128
    c00037e6:	4581                	li	a1,0
    c00037e8:	00b51e63          	bne	a0,a1,c0003804 <.LBB16_42+0x84>
    c00037ec:	0040006f          	j	c00037f0 <.LBB16_42+0x70>
    c00037f0:	fe043503          	ld	a0,-32(s0)
    c00037f4:	4595                	li	a1,5
    c00037f6:	40a58533          	sub	a0,a1,a0
    c00037fa:	fd843583          	ld	a1,-40(s0)
    c00037fe:	f988                	sd	a0,48(a1)
    c0003800:	0080006f          	j	c0003808 <.LBB16_42+0x88>
    c0003804:	0040006f          	j	c0003808 <.LBB16_42+0x88>
    c0003808:	fd843503          	ld	a0,-40(s0)
    c000380c:	7508                	ld	a0,40(a0)
    c000380e:	fc843583          	ld	a1,-56(s0)
    c0003812:	02800613          	li	a2,40
    c0003816:	02c585b3          	mul	a1,a1,a2

00000000c000381a <.LBB16_43>:
    c000381a:	0007f617          	auipc	a2,0x7f
    c000381e:	cb660613          	addi	a2,a2,-842 # c00824d0 <pxReadyTasksLists>
    c0003822:	95b2                	add	a1,a1,a2
    c0003824:	08b51763          	bne	a0,a1,c00038b2 <.LBB16_46+0x22>
    c0003828:	0040006f          	j	c000382c <.LBB16_43+0x12>
    c000382c:	fd843503          	ld	a0,-40(s0)
    c0003830:	0521                	addi	a0,a0,8
    c0003832:	ffffd097          	auipc	ra,0xffffd
    c0003836:	eb0080e7          	jalr	-336(ra) # c00006e2 <uxListRemove>
    c000383a:	4581                	li	a1,0
    c000383c:	02b51463          	bne	a0,a1,c0003864 <.LBB16_44+0x12>
    c0003840:	0040006f          	j	c0003844 <.LBB16_43+0x2a>
    c0003844:	fc843503          	ld	a0,-56(s0)
    c0003848:	4585                	li	a1,1
    c000384a:	00a59533          	sll	a0,a1,a0
    c000384e:	fff54513          	not	a0,a0

00000000c0003852 <.LBB16_44>:
    c0003852:	0007d597          	auipc	a1,0x7d
    c0003856:	cc658593          	addi	a1,a1,-826 # c0080518 <uxTopReadyPriority>
    c000385a:	6190                	ld	a2,0(a1)
    c000385c:	8d71                	and	a0,a0,a2
    c000385e:	e188                	sd	a0,0(a1)
    c0003860:	0080006f          	j	c0003868 <.LBB16_44+0x16>
    c0003864:	0040006f          	j	c0003868 <.LBB16_44+0x16>
    c0003868:	fd843503          	ld	a0,-40(s0)
    c000386c:	6d28                	ld	a0,88(a0)
    c000386e:	4585                	li	a1,1
    c0003870:	00a59533          	sll	a0,a1,a0

00000000c0003874 <.LBB16_45>:
    c0003874:	0007d597          	auipc	a1,0x7d
    c0003878:	ca458593          	addi	a1,a1,-860 # c0080518 <uxTopReadyPriority>
    c000387c:	6190                	ld	a2,0(a1)
    c000387e:	8d51                	or	a0,a0,a2
    c0003880:	e188                	sd	a0,0(a1)
    c0003882:	fd843503          	ld	a0,-40(s0)
    c0003886:	6d2c                	ld	a1,88(a0)
    c0003888:	02800613          	li	a2,40
    c000388c:	02c585b3          	mul	a1,a1,a2

00000000c0003890 <.LBB16_46>:
    c0003890:	0007f617          	auipc	a2,0x7f
    c0003894:	c4060613          	addi	a2,a2,-960 # c00824d0 <pxReadyTasksLists>
    c0003898:	95b2                	add	a1,a1,a2
    c000389a:	0521                	addi	a0,a0,8
    c000389c:	faa43823          	sd	a0,-80(s0)
    c00038a0:	852e                	mv	a0,a1
    c00038a2:	fb043583          	ld	a1,-80(s0)
    c00038a6:	ffffd097          	auipc	ra,0xffffd
    c00038aa:	d28080e7          	jalr	-728(ra) # c00005ce <vListInsertEnd>
    c00038ae:	0080006f          	j	c00038b6 <.LBB16_46+0x26>
    c00038b2:	0040006f          	j	c00038b6 <.LBB16_46+0x26>
    c00038b6:	fc043503          	ld	a0,-64(s0)
    c00038ba:	4581                	li	a1,0
    c00038bc:	00b50863          	beq	a0,a1,c00038cc <.LBB16_46+0x3c>
    c00038c0:	0040006f          	j	c00038c4 <.LBB16_46+0x34>
    c00038c4:	00000073          	ecall
    c00038c8:	0080006f          	j	c00038d0 <.LBB16_46+0x40>
    c00038cc:	0040006f          	j	c00038d0 <.LBB16_46+0x40>
    c00038d0:	0040006f          	j	c00038d4 <.LBB16_46+0x44>
    c00038d4:	fffff097          	auipc	ra,0xfffff
    c00038d8:	52a080e7          	jalr	1322(ra) # c0002dfe <vTaskExitCritical>
    c00038dc:	6406                	ld	s0,64(sp)
    c00038de:	60a6                	ld	ra,72(sp)
    c00038e0:	6161                	addi	sp,sp,80
    c00038e2:	8082                	ret

00000000c00038e4 <vTaskSuspend>:
    c00038e4:	7179                	addi	sp,sp,-48
    c00038e6:	f406                	sd	ra,40(sp)
    c00038e8:	f022                	sd	s0,32(sp)
    c00038ea:	1800                	addi	s0,sp,48
    c00038ec:	fea43423          	sd	a0,-24(s0)
    c00038f0:	fffff097          	auipc	ra,0xfffff
    c00038f4:	432080e7          	jalr	1074(ra) # c0002d22 <vTaskEnterCritical>
    c00038f8:	fe843503          	ld	a0,-24(s0)
    c00038fc:	4581                	li	a1,0
    c00038fe:	00b51d63          	bne	a0,a1,c0003918 <.LBB17_29+0x12>
    c0003902:	0040006f          	j	c0003906 <.LBB17_29>

00000000c0003906 <.LBB17_29>:
    c0003906:	0007d517          	auipc	a0,0x7d
    c000390a:	c0a50513          	addi	a0,a0,-1014 # c0080510 <pxCurrentTCB>
    c000390e:	6108                	ld	a0,0(a0)
    c0003910:	fca43c23          	sd	a0,-40(s0)
    c0003914:	0100006f          	j	c0003924 <.LBB17_29+0x1e>
    c0003918:	fe843503          	ld	a0,-24(s0)
    c000391c:	fca43c23          	sd	a0,-40(s0)
    c0003920:	0040006f          	j	c0003924 <.LBB17_29+0x1e>
    c0003924:	fd843503          	ld	a0,-40(s0)
    c0003928:	fea43023          	sd	a0,-32(s0)
    c000392c:	fe043503          	ld	a0,-32(s0)
    c0003930:	0521                	addi	a0,a0,8
    c0003932:	ffffd097          	auipc	ra,0xffffd
    c0003936:	db0080e7          	jalr	-592(ra) # c00006e2 <uxListRemove>
    c000393a:	4581                	li	a1,0
    c000393c:	04b51963          	bne	a0,a1,c000398e <.LBB17_31+0x16>
    c0003940:	0040006f          	j	c0003944 <.LBB17_29+0x3e>
    c0003944:	fe043503          	ld	a0,-32(s0)
    c0003948:	6d28                	ld	a0,88(a0)
    c000394a:	02800593          	li	a1,40
    c000394e:	02b50533          	mul	a0,a0,a1

00000000c0003952 <.LBB17_30>:
    c0003952:	0007f597          	auipc	a1,0x7f
    c0003956:	b7e58593          	addi	a1,a1,-1154 # c00824d0 <pxReadyTasksLists>
    c000395a:	952e                	add	a0,a0,a1
    c000395c:	6108                	ld	a0,0(a0)
    c000395e:	4581                	li	a1,0
    c0003960:	02b51563          	bne	a0,a1,c000398a <.LBB17_31+0x12>
    c0003964:	0040006f          	j	c0003968 <.LBB17_30+0x16>
    c0003968:	fe043503          	ld	a0,-32(s0)
    c000396c:	6d28                	ld	a0,88(a0)
    c000396e:	4585                	li	a1,1
    c0003970:	00a59533          	sll	a0,a1,a0
    c0003974:	fff54513          	not	a0,a0

00000000c0003978 <.LBB17_31>:
    c0003978:	0007d597          	auipc	a1,0x7d
    c000397c:	ba058593          	addi	a1,a1,-1120 # c0080518 <uxTopReadyPriority>
    c0003980:	6190                	ld	a2,0(a1)
    c0003982:	8d71                	and	a0,a0,a2
    c0003984:	e188                	sd	a0,0(a1)
    c0003986:	0040006f          	j	c000398a <.LBB17_31+0x12>
    c000398a:	0080006f          	j	c0003992 <.LBB17_31+0x1a>
    c000398e:	0040006f          	j	c0003992 <.LBB17_31+0x1a>
    c0003992:	fe043503          	ld	a0,-32(s0)
    c0003996:	6928                	ld	a0,80(a0)
    c0003998:	4581                	li	a1,0
    c000399a:	00b50e63          	beq	a0,a1,c00039b6 <.LBB17_31+0x3e>
    c000399e:	0040006f          	j	c00039a2 <.LBB17_31+0x2a>
    c00039a2:	fe043503          	ld	a0,-32(s0)
    c00039a6:	03050513          	addi	a0,a0,48
    c00039aa:	ffffd097          	auipc	ra,0xffffd
    c00039ae:	d38080e7          	jalr	-712(ra) # c00006e2 <uxListRemove>
    c00039b2:	0080006f          	j	c00039ba <.LBB17_31+0x42>
    c00039b6:	0040006f          	j	c00039ba <.LBB17_31+0x42>
    c00039ba:	fe043503          	ld	a0,-32(s0)
    c00039be:	00850593          	addi	a1,a0,8

00000000c00039c2 <.LBB17_32>:
    c00039c2:	0007f517          	auipc	a0,0x7f
    c00039c6:	bfe50513          	addi	a0,a0,-1026 # c00825c0 <xSuspendedTaskList>
    c00039ca:	ffffd097          	auipc	ra,0xffffd
    c00039ce:	c04080e7          	jalr	-1020(ra) # c00005ce <vListInsertEnd>
    c00039d2:	fe043503          	ld	a0,-32(s0)
    c00039d6:	0b054503          	lbu	a0,176(a0)
    c00039da:	4585                	li	a1,1
    c00039dc:	00b51b63          	bne	a0,a1,c00039f2 <.LBB17_32+0x30>
    c00039e0:	0040006f          	j	c00039e4 <.LBB17_32+0x22>
    c00039e4:	fe043503          	ld	a0,-32(s0)
    c00039e8:	4581                	li	a1,0
    c00039ea:	0ab50823          	sb	a1,176(a0)
    c00039ee:	0040006f          	j	c00039f2 <.LBB17_32+0x30>
    c00039f2:	fffff097          	auipc	ra,0xfffff
    c00039f6:	40c080e7          	jalr	1036(ra) # c0002dfe <vTaskExitCritical>

00000000c00039fa <.LBB17_33>:
    c00039fa:	0007d517          	auipc	a0,0x7d
    c00039fe:	b3e50513          	addi	a0,a0,-1218 # c0080538 <xSchedulerRunning>
    c0003a02:	6108                	ld	a0,0(a0)
    c0003a04:	4581                	li	a1,0
    c0003a06:	02b50263          	beq	a0,a1,c0003a2a <.LBB17_33+0x30>
    c0003a0a:	0040006f          	j	c0003a0e <.LBB17_33+0x14>
    c0003a0e:	fffff097          	auipc	ra,0xfffff
    c0003a12:	314080e7          	jalr	788(ra) # c0002d22 <vTaskEnterCritical>
    c0003a16:	fffff097          	auipc	ra,0xfffff
    c0003a1a:	38c080e7          	jalr	908(ra) # c0002da2 <prvResetNextTaskUnblockTime>
    c0003a1e:	fffff097          	auipc	ra,0xfffff
    c0003a22:	3e0080e7          	jalr	992(ra) # c0002dfe <vTaskExitCritical>
    c0003a26:	0080006f          	j	c0003a2e <.LBB17_33+0x34>
    c0003a2a:	0040006f          	j	c0003a2e <.LBB17_33+0x34>
    c0003a2e:	fe043503          	ld	a0,-32(s0)

00000000c0003a32 <.LBB17_34>:
    c0003a32:	0007d597          	auipc	a1,0x7d
    c0003a36:	ade58593          	addi	a1,a1,-1314 # c0080510 <pxCurrentTCB>
    c0003a3a:	618c                	ld	a1,0(a1)
    c0003a3c:	08b51363          	bne	a0,a1,c0003ac2 <.LBB17_39+0x24>
    c0003a40:	0040006f          	j	c0003a44 <.LBB17_35>

00000000c0003a44 <.LBB17_35>:
    c0003a44:	0007d517          	auipc	a0,0x7d
    c0003a48:	af450513          	addi	a0,a0,-1292 # c0080538 <xSchedulerRunning>
    c0003a4c:	6108                	ld	a0,0(a0)
    c0003a4e:	4581                	li	a1,0
    c0003a50:	02b50963          	beq	a0,a1,c0003a82 <.LBB17_37>
    c0003a54:	0040006f          	j	c0003a58 <.LBB17_36>

00000000c0003a58 <.LBB17_36>:
    c0003a58:	0007d517          	auipc	a0,0x7d
    c0003a5c:	ae850513          	addi	a0,a0,-1304 # c0080540 <uxSchedulerSuspended>
    c0003a60:	6108                	ld	a0,0(a0)
    c0003a62:	4581                	li	a1,0
    c0003a64:	00b50b63          	beq	a0,a1,c0003a7a <.LBB17_36+0x22>
    c0003a68:	0040006f          	j	c0003a6c <.LBB17_36+0x14>
    c0003a6c:	30047073          	csrci	mstatus,8
    c0003a70:	9002                	ebreak
    c0003a72:	0040006f          	j	c0003a76 <.LBB17_36+0x1e>
    c0003a76:	0000006f          	j	c0003a76 <.LBB17_36+0x1e>
    c0003a7a:	00000073          	ecall
    c0003a7e:	0400006f          	j	c0003abe <.LBB17_39+0x20>

00000000c0003a82 <.LBB17_37>:
    c0003a82:	0007f517          	auipc	a0,0x7f
    c0003a86:	b3e50513          	addi	a0,a0,-1218 # c00825c0 <xSuspendedTaskList>
    c0003a8a:	6108                	ld	a0,0(a0)

00000000c0003a8c <.LBB17_38>:
    c0003a8c:	0007d597          	auipc	a1,0x7d
    c0003a90:	aa458593          	addi	a1,a1,-1372 # c0080530 <uxCurrentNumberOfTasks>
    c0003a94:	618c                	ld	a1,0(a1)
    c0003a96:	00b51c63          	bne	a0,a1,c0003aae <.LBB17_39+0x10>
    c0003a9a:	0040006f          	j	c0003a9e <.LBB17_39>

00000000c0003a9e <.LBB17_39>:
    c0003a9e:	0007d517          	auipc	a0,0x7d
    c0003aa2:	a7250513          	addi	a0,a0,-1422 # c0080510 <pxCurrentTCB>
    c0003aa6:	4581                	li	a1,0
    c0003aa8:	e10c                	sd	a1,0(a0)
    c0003aaa:	0100006f          	j	c0003aba <.LBB17_39+0x1c>
    c0003aae:	00000097          	auipc	ra,0x0
    c0003ab2:	020080e7          	jalr	32(ra) # c0003ace <vTaskSwitchContext>
    c0003ab6:	0040006f          	j	c0003aba <.LBB17_39+0x1c>
    c0003aba:	0040006f          	j	c0003abe <.LBB17_39+0x20>
    c0003abe:	0080006f          	j	c0003ac6 <.LBB17_39+0x28>
    c0003ac2:	0040006f          	j	c0003ac6 <.LBB17_39+0x28>
